
ctarget:     file format elf64-x86-64


Disassembly of section .init:

0000000000401000 <_init>:
  401000:	f3 0f 1e fa          	endbr64 
  401004:	48 83 ec 08          	sub    $0x8,%rsp
  401008:	48 8b 05 e9 5f 00 00 	mov    0x5fe9(%rip),%rax        # 406ff8 <__gmon_start__>
  40100f:	48 85 c0             	test   %rax,%rax
  401012:	74 02                	je     401016 <_init+0x16>
  401014:	ff d0                	callq  *%rax
  401016:	48 83 c4 08          	add    $0x8,%rsp
  40101a:	c3                   	retq   

Disassembly of section .plt:

0000000000401020 <.plt>:
  401020:	ff 35 e2 5f 00 00    	pushq  0x5fe2(%rip)        # 407008 <_GLOBAL_OFFSET_TABLE_+0x8>
  401026:	f2 ff 25 e3 5f 00 00 	bnd jmpq *0x5fe3(%rip)        # 407010 <_GLOBAL_OFFSET_TABLE_+0x10>
  40102d:	0f 1f 00             	nopl   (%rax)
  401030:	f3 0f 1e fa          	endbr64 
  401034:	68 00 00 00 00       	pushq  $0x0
  401039:	f2 e9 e1 ff ff ff    	bnd jmpq 401020 <.plt>
  40103f:	90                   	nop
  401040:	f3 0f 1e fa          	endbr64 
  401044:	68 01 00 00 00       	pushq  $0x1
  401049:	f2 e9 d1 ff ff ff    	bnd jmpq 401020 <.plt>
  40104f:	90                   	nop
  401050:	f3 0f 1e fa          	endbr64 
  401054:	68 02 00 00 00       	pushq  $0x2
  401059:	f2 e9 c1 ff ff ff    	bnd jmpq 401020 <.plt>
  40105f:	90                   	nop
  401060:	f3 0f 1e fa          	endbr64 
  401064:	68 03 00 00 00       	pushq  $0x3
  401069:	f2 e9 b1 ff ff ff    	bnd jmpq 401020 <.plt>
  40106f:	90                   	nop
  401070:	f3 0f 1e fa          	endbr64 
  401074:	68 04 00 00 00       	pushq  $0x4
  401079:	f2 e9 a1 ff ff ff    	bnd jmpq 401020 <.plt>
  40107f:	90                   	nop
  401080:	f3 0f 1e fa          	endbr64 
  401084:	68 05 00 00 00       	pushq  $0x5
  401089:	f2 e9 91 ff ff ff    	bnd jmpq 401020 <.plt>
  40108f:	90                   	nop
  401090:	f3 0f 1e fa          	endbr64 
  401094:	68 06 00 00 00       	pushq  $0x6
  401099:	f2 e9 81 ff ff ff    	bnd jmpq 401020 <.plt>
  40109f:	90                   	nop
  4010a0:	f3 0f 1e fa          	endbr64 
  4010a4:	68 07 00 00 00       	pushq  $0x7
  4010a9:	f2 e9 71 ff ff ff    	bnd jmpq 401020 <.plt>
  4010af:	90                   	nop
  4010b0:	f3 0f 1e fa          	endbr64 
  4010b4:	68 08 00 00 00       	pushq  $0x8
  4010b9:	f2 e9 61 ff ff ff    	bnd jmpq 401020 <.plt>
  4010bf:	90                   	nop
  4010c0:	f3 0f 1e fa          	endbr64 
  4010c4:	68 09 00 00 00       	pushq  $0x9
  4010c9:	f2 e9 51 ff ff ff    	bnd jmpq 401020 <.plt>
  4010cf:	90                   	nop
  4010d0:	f3 0f 1e fa          	endbr64 
  4010d4:	68 0a 00 00 00       	pushq  $0xa
  4010d9:	f2 e9 41 ff ff ff    	bnd jmpq 401020 <.plt>
  4010df:	90                   	nop
  4010e0:	f3 0f 1e fa          	endbr64 
  4010e4:	68 0b 00 00 00       	pushq  $0xb
  4010e9:	f2 e9 31 ff ff ff    	bnd jmpq 401020 <.plt>
  4010ef:	90                   	nop
  4010f0:	f3 0f 1e fa          	endbr64 
  4010f4:	68 0c 00 00 00       	pushq  $0xc
  4010f9:	f2 e9 21 ff ff ff    	bnd jmpq 401020 <.plt>
  4010ff:	90                   	nop
  401100:	f3 0f 1e fa          	endbr64 
  401104:	68 0d 00 00 00       	pushq  $0xd
  401109:	f2 e9 11 ff ff ff    	bnd jmpq 401020 <.plt>
  40110f:	90                   	nop
  401110:	f3 0f 1e fa          	endbr64 
  401114:	68 0e 00 00 00       	pushq  $0xe
  401119:	f2 e9 01 ff ff ff    	bnd jmpq 401020 <.plt>
  40111f:	90                   	nop
  401120:	f3 0f 1e fa          	endbr64 
  401124:	68 0f 00 00 00       	pushq  $0xf
  401129:	f2 e9 f1 fe ff ff    	bnd jmpq 401020 <.plt>
  40112f:	90                   	nop
  401130:	f3 0f 1e fa          	endbr64 
  401134:	68 10 00 00 00       	pushq  $0x10
  401139:	f2 e9 e1 fe ff ff    	bnd jmpq 401020 <.plt>
  40113f:	90                   	nop
  401140:	f3 0f 1e fa          	endbr64 
  401144:	68 11 00 00 00       	pushq  $0x11
  401149:	f2 e9 d1 fe ff ff    	bnd jmpq 401020 <.plt>
  40114f:	90                   	nop
  401150:	f3 0f 1e fa          	endbr64 
  401154:	68 12 00 00 00       	pushq  $0x12
  401159:	f2 e9 c1 fe ff ff    	bnd jmpq 401020 <.plt>
  40115f:	90                   	nop
  401160:	f3 0f 1e fa          	endbr64 
  401164:	68 13 00 00 00       	pushq  $0x13
  401169:	f2 e9 b1 fe ff ff    	bnd jmpq 401020 <.plt>
  40116f:	90                   	nop
  401170:	f3 0f 1e fa          	endbr64 
  401174:	68 14 00 00 00       	pushq  $0x14
  401179:	f2 e9 a1 fe ff ff    	bnd jmpq 401020 <.plt>
  40117f:	90                   	nop
  401180:	f3 0f 1e fa          	endbr64 
  401184:	68 15 00 00 00       	pushq  $0x15
  401189:	f2 e9 91 fe ff ff    	bnd jmpq 401020 <.plt>
  40118f:	90                   	nop
  401190:	f3 0f 1e fa          	endbr64 
  401194:	68 16 00 00 00       	pushq  $0x16
  401199:	f2 e9 81 fe ff ff    	bnd jmpq 401020 <.plt>
  40119f:	90                   	nop
  4011a0:	f3 0f 1e fa          	endbr64 
  4011a4:	68 17 00 00 00       	pushq  $0x17
  4011a9:	f2 e9 71 fe ff ff    	bnd jmpq 401020 <.plt>
  4011af:	90                   	nop
  4011b0:	f3 0f 1e fa          	endbr64 
  4011b4:	68 18 00 00 00       	pushq  $0x18
  4011b9:	f2 e9 61 fe ff ff    	bnd jmpq 401020 <.plt>
  4011bf:	90                   	nop
  4011c0:	f3 0f 1e fa          	endbr64 
  4011c4:	68 19 00 00 00       	pushq  $0x19
  4011c9:	f2 e9 51 fe ff ff    	bnd jmpq 401020 <.plt>
  4011cf:	90                   	nop
  4011d0:	f3 0f 1e fa          	endbr64 
  4011d4:	68 1a 00 00 00       	pushq  $0x1a
  4011d9:	f2 e9 41 fe ff ff    	bnd jmpq 401020 <.plt>
  4011df:	90                   	nop
  4011e0:	f3 0f 1e fa          	endbr64 
  4011e4:	68 1b 00 00 00       	pushq  $0x1b
  4011e9:	f2 e9 31 fe ff ff    	bnd jmpq 401020 <.plt>
  4011ef:	90                   	nop
  4011f0:	f3 0f 1e fa          	endbr64 
  4011f4:	68 1c 00 00 00       	pushq  $0x1c
  4011f9:	f2 e9 21 fe ff ff    	bnd jmpq 401020 <.plt>
  4011ff:	90                   	nop
  401200:	f3 0f 1e fa          	endbr64 
  401204:	68 1d 00 00 00       	pushq  $0x1d
  401209:	f2 e9 11 fe ff ff    	bnd jmpq 401020 <.plt>
  40120f:	90                   	nop
  401210:	f3 0f 1e fa          	endbr64 
  401214:	68 1e 00 00 00       	pushq  $0x1e
  401219:	f2 e9 01 fe ff ff    	bnd jmpq 401020 <.plt>
  40121f:	90                   	nop
  401220:	f3 0f 1e fa          	endbr64 
  401224:	68 1f 00 00 00       	pushq  $0x1f
  401229:	f2 e9 f1 fd ff ff    	bnd jmpq 401020 <.plt>
  40122f:	90                   	nop
  401230:	f3 0f 1e fa          	endbr64 
  401234:	68 20 00 00 00       	pushq  $0x20
  401239:	f2 e9 e1 fd ff ff    	bnd jmpq 401020 <.plt>
  40123f:	90                   	nop

Disassembly of section .plt.sec:

0000000000401240 <strcasecmp@plt>:
  401240:	f3 0f 1e fa          	endbr64 
  401244:	f2 ff 25 cd 5d 00 00 	bnd jmpq *0x5dcd(%rip)        # 407018 <strcasecmp@GLIBC_2.2.5>
  40124b:	0f 1f 44 00 00       	nopl   0x0(%rax,%rax,1)

0000000000401250 <__errno_location@plt>:
  401250:	f3 0f 1e fa          	endbr64 
  401254:	f2 ff 25 c5 5d 00 00 	bnd jmpq *0x5dc5(%rip)        # 407020 <__errno_location@GLIBC_2.2.5>
  40125b:	0f 1f 44 00 00       	nopl   0x0(%rax,%rax,1)

0000000000401260 <srandom@plt>:
  401260:	f3 0f 1e fa          	endbr64 
  401264:	f2 ff 25 bd 5d 00 00 	bnd jmpq *0x5dbd(%rip)        # 407028 <srandom@GLIBC_2.2.5>
  40126b:	0f 1f 44 00 00       	nopl   0x0(%rax,%rax,1)

0000000000401270 <strncmp@plt>:
  401270:	f3 0f 1e fa          	endbr64 
  401274:	f2 ff 25 b5 5d 00 00 	bnd jmpq *0x5db5(%rip)        # 407030 <strncmp@GLIBC_2.2.5>
  40127b:	0f 1f 44 00 00       	nopl   0x0(%rax,%rax,1)

0000000000401280 <strcpy@plt>:
  401280:	f3 0f 1e fa          	endbr64 
  401284:	f2 ff 25 ad 5d 00 00 	bnd jmpq *0x5dad(%rip)        # 407038 <strcpy@GLIBC_2.2.5>
  40128b:	0f 1f 44 00 00       	nopl   0x0(%rax,%rax,1)

0000000000401290 <puts@plt>:
  401290:	f3 0f 1e fa          	endbr64 
  401294:	f2 ff 25 a5 5d 00 00 	bnd jmpq *0x5da5(%rip)        # 407040 <puts@GLIBC_2.2.5>
  40129b:	0f 1f 44 00 00       	nopl   0x0(%rax,%rax,1)

00000000004012a0 <write@plt>:
  4012a0:	f3 0f 1e fa          	endbr64 
  4012a4:	f2 ff 25 9d 5d 00 00 	bnd jmpq *0x5d9d(%rip)        # 407048 <write@GLIBC_2.2.5>
  4012ab:	0f 1f 44 00 00       	nopl   0x0(%rax,%rax,1)

00000000004012b0 <__stack_chk_fail@plt>:
  4012b0:	f3 0f 1e fa          	endbr64 
  4012b4:	f2 ff 25 95 5d 00 00 	bnd jmpq *0x5d95(%rip)        # 407050 <__stack_chk_fail@GLIBC_2.4>
  4012bb:	0f 1f 44 00 00       	nopl   0x0(%rax,%rax,1)

00000000004012c0 <mmap@plt>:
  4012c0:	f3 0f 1e fa          	endbr64 
  4012c4:	f2 ff 25 8d 5d 00 00 	bnd jmpq *0x5d8d(%rip)        # 407058 <mmap@GLIBC_2.2.5>
  4012cb:	0f 1f 44 00 00       	nopl   0x0(%rax,%rax,1)

00000000004012d0 <memset@plt>:
  4012d0:	f3 0f 1e fa          	endbr64 
  4012d4:	f2 ff 25 85 5d 00 00 	bnd jmpq *0x5d85(%rip)        # 407060 <memset@GLIBC_2.2.5>
  4012db:	0f 1f 44 00 00       	nopl   0x0(%rax,%rax,1)

00000000004012e0 <alarm@plt>:
  4012e0:	f3 0f 1e fa          	endbr64 
  4012e4:	f2 ff 25 7d 5d 00 00 	bnd jmpq *0x5d7d(%rip)        # 407068 <alarm@GLIBC_2.2.5>
  4012eb:	0f 1f 44 00 00       	nopl   0x0(%rax,%rax,1)

00000000004012f0 <close@plt>:
  4012f0:	f3 0f 1e fa          	endbr64 
  4012f4:	f2 ff 25 75 5d 00 00 	bnd jmpq *0x5d75(%rip)        # 407070 <close@GLIBC_2.2.5>
  4012fb:	0f 1f 44 00 00       	nopl   0x0(%rax,%rax,1)

0000000000401300 <read@plt>:
  401300:	f3 0f 1e fa          	endbr64 
  401304:	f2 ff 25 6d 5d 00 00 	bnd jmpq *0x5d6d(%rip)        # 407078 <read@GLIBC_2.2.5>
  40130b:	0f 1f 44 00 00       	nopl   0x0(%rax,%rax,1)

0000000000401310 <signal@plt>:
  401310:	f3 0f 1e fa          	endbr64 
  401314:	f2 ff 25 65 5d 00 00 	bnd jmpq *0x5d65(%rip)        # 407080 <signal@GLIBC_2.2.5>
  40131b:	0f 1f 44 00 00       	nopl   0x0(%rax,%rax,1)

0000000000401320 <gethostbyname@plt>:
  401320:	f3 0f 1e fa          	endbr64 
  401324:	f2 ff 25 5d 5d 00 00 	bnd jmpq *0x5d5d(%rip)        # 407088 <gethostbyname@GLIBC_2.2.5>
  40132b:	0f 1f 44 00 00       	nopl   0x0(%rax,%rax,1)

0000000000401330 <__memmove_chk@plt>:
  401330:	f3 0f 1e fa          	endbr64 
  401334:	f2 ff 25 55 5d 00 00 	bnd jmpq *0x5d55(%rip)        # 407090 <__memmove_chk@GLIBC_2.3.4>
  40133b:	0f 1f 44 00 00       	nopl   0x0(%rax,%rax,1)

0000000000401340 <strtol@plt>:
  401340:	f3 0f 1e fa          	endbr64 
  401344:	f2 ff 25 4d 5d 00 00 	bnd jmpq *0x5d4d(%rip)        # 407098 <strtol@GLIBC_2.2.5>
  40134b:	0f 1f 44 00 00       	nopl   0x0(%rax,%rax,1)

0000000000401350 <memcpy@plt>:
  401350:	f3 0f 1e fa          	endbr64 
  401354:	f2 ff 25 45 5d 00 00 	bnd jmpq *0x5d45(%rip)        # 4070a0 <memcpy@GLIBC_2.14>
  40135b:	0f 1f 44 00 00       	nopl   0x0(%rax,%rax,1)

0000000000401360 <time@plt>:
  401360:	f3 0f 1e fa          	endbr64 
  401364:	f2 ff 25 3d 5d 00 00 	bnd jmpq *0x5d3d(%rip)        # 4070a8 <time@GLIBC_2.2.5>
  40136b:	0f 1f 44 00 00       	nopl   0x0(%rax,%rax,1)

0000000000401370 <random@plt>:
  401370:	f3 0f 1e fa          	endbr64 
  401374:	f2 ff 25 35 5d 00 00 	bnd jmpq *0x5d35(%rip)        # 4070b0 <random@GLIBC_2.2.5>
  40137b:	0f 1f 44 00 00       	nopl   0x0(%rax,%rax,1)

0000000000401380 <__isoc99_sscanf@plt>:
  401380:	f3 0f 1e fa          	endbr64 
  401384:	f2 ff 25 2d 5d 00 00 	bnd jmpq *0x5d2d(%rip)        # 4070b8 <__isoc99_sscanf@GLIBC_2.7>
  40138b:	0f 1f 44 00 00       	nopl   0x0(%rax,%rax,1)

0000000000401390 <munmap@plt>:
  401390:	f3 0f 1e fa          	endbr64 
  401394:	f2 ff 25 25 5d 00 00 	bnd jmpq *0x5d25(%rip)        # 4070c0 <munmap@GLIBC_2.2.5>
  40139b:	0f 1f 44 00 00       	nopl   0x0(%rax,%rax,1)

00000000004013a0 <__printf_chk@plt>:
  4013a0:	f3 0f 1e fa          	endbr64 
  4013a4:	f2 ff 25 1d 5d 00 00 	bnd jmpq *0x5d1d(%rip)        # 4070c8 <__printf_chk@GLIBC_2.3.4>
  4013ab:	0f 1f 44 00 00       	nopl   0x0(%rax,%rax,1)

00000000004013b0 <fopen@plt>:
  4013b0:	f3 0f 1e fa          	endbr64 
  4013b4:	f2 ff 25 15 5d 00 00 	bnd jmpq *0x5d15(%rip)        # 4070d0 <fopen@GLIBC_2.2.5>
  4013bb:	0f 1f 44 00 00       	nopl   0x0(%rax,%rax,1)

00000000004013c0 <getopt@plt>:
  4013c0:	f3 0f 1e fa          	endbr64 
  4013c4:	f2 ff 25 0d 5d 00 00 	bnd jmpq *0x5d0d(%rip)        # 4070d8 <getopt@GLIBC_2.2.5>
  4013cb:	0f 1f 44 00 00       	nopl   0x0(%rax,%rax,1)

00000000004013d0 <strtoul@plt>:
  4013d0:	f3 0f 1e fa          	endbr64 
  4013d4:	f2 ff 25 05 5d 00 00 	bnd jmpq *0x5d05(%rip)        # 4070e0 <strtoul@GLIBC_2.2.5>
  4013db:	0f 1f 44 00 00       	nopl   0x0(%rax,%rax,1)

00000000004013e0 <gethostname@plt>:
  4013e0:	f3 0f 1e fa          	endbr64 
  4013e4:	f2 ff 25 fd 5c 00 00 	bnd jmpq *0x5cfd(%rip)        # 4070e8 <gethostname@GLIBC_2.2.5>
  4013eb:	0f 1f 44 00 00       	nopl   0x0(%rax,%rax,1)

00000000004013f0 <exit@plt>:
  4013f0:	f3 0f 1e fa          	endbr64 
  4013f4:	f2 ff 25 f5 5c 00 00 	bnd jmpq *0x5cf5(%rip)        # 4070f0 <exit@GLIBC_2.2.5>
  4013fb:	0f 1f 44 00 00       	nopl   0x0(%rax,%rax,1)

0000000000401400 <connect@plt>:
  401400:	f3 0f 1e fa          	endbr64 
  401404:	f2 ff 25 ed 5c 00 00 	bnd jmpq *0x5ced(%rip)        # 4070f8 <connect@GLIBC_2.2.5>
  40140b:	0f 1f 44 00 00       	nopl   0x0(%rax,%rax,1)

0000000000401410 <__fprintf_chk@plt>:
  401410:	f3 0f 1e fa          	endbr64 
  401414:	f2 ff 25 e5 5c 00 00 	bnd jmpq *0x5ce5(%rip)        # 407100 <__fprintf_chk@GLIBC_2.3.4>
  40141b:	0f 1f 44 00 00       	nopl   0x0(%rax,%rax,1)

0000000000401420 <getc@plt>:
  401420:	f3 0f 1e fa          	endbr64 
  401424:	f2 ff 25 dd 5c 00 00 	bnd jmpq *0x5cdd(%rip)        # 407108 <getc@GLIBC_2.2.5>
  40142b:	0f 1f 44 00 00       	nopl   0x0(%rax,%rax,1)

0000000000401430 <__sprintf_chk@plt>:
  401430:	f3 0f 1e fa          	endbr64 
  401434:	f2 ff 25 d5 5c 00 00 	bnd jmpq *0x5cd5(%rip)        # 407110 <__sprintf_chk@GLIBC_2.3.4>
  40143b:	0f 1f 44 00 00       	nopl   0x0(%rax,%rax,1)

0000000000401440 <socket@plt>:
  401440:	f3 0f 1e fa          	endbr64 
  401444:	f2 ff 25 cd 5c 00 00 	bnd jmpq *0x5ccd(%rip)        # 407118 <socket@GLIBC_2.2.5>
  40144b:	0f 1f 44 00 00       	nopl   0x0(%rax,%rax,1)

Disassembly of section .text:

0000000000401450 <_start>:
  401450:	f3 0f 1e fa          	endbr64 
  401454:	31 ed                	xor    %ebp,%ebp
  401456:	49 89 d1             	mov    %rdx,%r9
  401459:	5e                   	pop    %rsi
  40145a:	48 89 e2             	mov    %rsp,%rdx
  40145d:	48 83 e4 f0          	and    $0xfffffffffffffff0,%rsp
  401461:	50                   	push   %rax
  401462:	54                   	push   %rsp
  401463:	49 c7 c0 e0 35 40 00 	mov    $0x4035e0,%r8
  40146a:	48 c7 c1 70 35 40 00 	mov    $0x403570,%rcx
  401471:	48 c7 c7 79 17 40 00 	mov    $0x401779,%rdi
  401478:	ff 15 72 5b 00 00    	callq  *0x5b72(%rip)        # 406ff0 <__libc_start_main@GLIBC_2.2.5>
  40147e:	f4                   	hlt    
  40147f:	90                   	nop

0000000000401480 <_dl_relocate_static_pie>:
  401480:	f3 0f 1e fa          	endbr64 
  401484:	c3                   	retq   
  401485:	66 2e 0f 1f 84 00 00 	nopw   %cs:0x0(%rax,%rax,1)
  40148c:	00 00 00 
  40148f:	90                   	nop

0000000000401490 <deregister_tm_clones>:
  401490:	b8 90 74 40 00       	mov    $0x407490,%eax
  401495:	48 3d 90 74 40 00    	cmp    $0x407490,%rax
  40149b:	74 13                	je     4014b0 <deregister_tm_clones+0x20>
  40149d:	b8 00 00 00 00       	mov    $0x0,%eax
  4014a2:	48 85 c0             	test   %rax,%rax
  4014a5:	74 09                	je     4014b0 <deregister_tm_clones+0x20>
  4014a7:	bf 90 74 40 00       	mov    $0x407490,%edi
  4014ac:	ff e0                	jmpq   *%rax
  4014ae:	66 90                	xchg   %ax,%ax
  4014b0:	c3                   	retq   
  4014b1:	66 66 2e 0f 1f 84 00 	data16 nopw %cs:0x0(%rax,%rax,1)
  4014b8:	00 00 00 00 
  4014bc:	0f 1f 40 00          	nopl   0x0(%rax)

00000000004014c0 <register_tm_clones>:
  4014c0:	be 90 74 40 00       	mov    $0x407490,%esi
  4014c5:	48 81 ee 90 74 40 00 	sub    $0x407490,%rsi
  4014cc:	48 89 f0             	mov    %rsi,%rax
  4014cf:	48 c1 ee 3f          	shr    $0x3f,%rsi
  4014d3:	48 c1 f8 03          	sar    $0x3,%rax
  4014d7:	48 01 c6             	add    %rax,%rsi
  4014da:	48 d1 fe             	sar    %rsi
  4014dd:	74 11                	je     4014f0 <register_tm_clones+0x30>
  4014df:	b8 00 00 00 00       	mov    $0x0,%eax
  4014e4:	48 85 c0             	test   %rax,%rax
  4014e7:	74 07                	je     4014f0 <register_tm_clones+0x30>
  4014e9:	bf 90 74 40 00       	mov    $0x407490,%edi
  4014ee:	ff e0                	jmpq   *%rax
  4014f0:	c3                   	retq   
  4014f1:	66 66 2e 0f 1f 84 00 	data16 nopw %cs:0x0(%rax,%rax,1)
  4014f8:	00 00 00 00 
  4014fc:	0f 1f 40 00          	nopl   0x0(%rax)

0000000000401500 <__do_global_dtors_aux>:
  401500:	f3 0f 1e fa          	endbr64 
  401504:	80 3d bd 5f 00 00 00 	cmpb   $0x0,0x5fbd(%rip)        # 4074c8 <completed.8061>
  40150b:	75 13                	jne    401520 <__do_global_dtors_aux+0x20>
  40150d:	55                   	push   %rbp
  40150e:	48 89 e5             	mov    %rsp,%rbp
  401511:	e8 7a ff ff ff       	callq  401490 <deregister_tm_clones>
  401516:	c6 05 ab 5f 00 00 01 	movb   $0x1,0x5fab(%rip)        # 4074c8 <completed.8061>
  40151d:	5d                   	pop    %rbp
  40151e:	c3                   	retq   
  40151f:	90                   	nop
  401520:	c3                   	retq   
  401521:	66 66 2e 0f 1f 84 00 	data16 nopw %cs:0x0(%rax,%rax,1)
  401528:	00 00 00 00 
  40152c:	0f 1f 40 00          	nopl   0x0(%rax)

0000000000401530 <frame_dummy>:
  401530:	f3 0f 1e fa          	endbr64 
  401534:	eb 8a                	jmp    4014c0 <register_tm_clones>

0000000000401536 <usage>:
  401536:	50                   	push   %rax
  401537:	58                   	pop    %rax
  401538:	48 83 ec 08          	sub    $0x8,%rsp
  40153c:	48 89 fa             	mov    %rdi,%rdx
  40153f:	83 3d c2 5f 00 00 00 	cmpl   $0x0,0x5fc2(%rip)        # 407508 <is_checker>
  401546:	74 50                	je     401598 <usage+0x62>
  401548:	48 8d 35 b9 2a 00 00 	lea    0x2ab9(%rip),%rsi        # 404008 <_IO_stdin_used+0x8>
  40154f:	bf 01 00 00 00       	mov    $0x1,%edi
  401554:	b8 00 00 00 00       	mov    $0x0,%eax
  401559:	e8 42 fe ff ff       	callq  4013a0 <__printf_chk@plt>
  40155e:	48 8d 3d db 2a 00 00 	lea    0x2adb(%rip),%rdi        # 404040 <_IO_stdin_used+0x40>
  401565:	e8 26 fd ff ff       	callq  401290 <puts@plt>
  40156a:	48 8d 3d 47 2c 00 00 	lea    0x2c47(%rip),%rdi        # 4041b8 <_IO_stdin_used+0x1b8>
  401571:	e8 1a fd ff ff       	callq  401290 <puts@plt>
  401576:	48 8d 3d eb 2a 00 00 	lea    0x2aeb(%rip),%rdi        # 404068 <_IO_stdin_used+0x68>
  40157d:	e8 0e fd ff ff       	callq  401290 <puts@plt>
  401582:	48 8d 3d 49 2c 00 00 	lea    0x2c49(%rip),%rdi        # 4041d2 <_IO_stdin_used+0x1d2>
  401589:	e8 02 fd ff ff       	callq  401290 <puts@plt>
  40158e:	bf 00 00 00 00       	mov    $0x0,%edi
  401593:	e8 58 fe ff ff       	callq  4013f0 <exit@plt>
  401598:	48 8d 35 4f 2c 00 00 	lea    0x2c4f(%rip),%rsi        # 4041ee <_IO_stdin_used+0x1ee>
  40159f:	bf 01 00 00 00       	mov    $0x1,%edi
  4015a4:	b8 00 00 00 00       	mov    $0x0,%eax
  4015a9:	e8 f2 fd ff ff       	callq  4013a0 <__printf_chk@plt>
  4015ae:	48 8d 3d db 2a 00 00 	lea    0x2adb(%rip),%rdi        # 404090 <_IO_stdin_used+0x90>
  4015b5:	e8 d6 fc ff ff       	callq  401290 <puts@plt>
  4015ba:	48 8d 3d f7 2a 00 00 	lea    0x2af7(%rip),%rdi        # 4040b8 <_IO_stdin_used+0xb8>
  4015c1:	e8 ca fc ff ff       	callq  401290 <puts@plt>
  4015c6:	48 8d 3d 3f 2c 00 00 	lea    0x2c3f(%rip),%rdi        # 40420c <_IO_stdin_used+0x20c>
  4015cd:	e8 be fc ff ff       	callq  401290 <puts@plt>
  4015d2:	eb ba                	jmp    40158e <usage+0x58>

00000000004015d4 <initialize_target>:
  4015d4:	55                   	push   %rbp
  4015d5:	53                   	push   %rbx
  4015d6:	48 81 ec 00 10 00 00 	sub    $0x1000,%rsp
  4015dd:	48 83 0c 24 00       	orq    $0x0,(%rsp)
  4015e2:	48 81 ec 00 10 00 00 	sub    $0x1000,%rsp
  4015e9:	48 83 0c 24 00       	orq    $0x0,(%rsp)
  4015ee:	48 81 ec 18 01 00 00 	sub    $0x118,%rsp
  4015f5:	89 f5                	mov    %esi,%ebp
  4015f7:	64 48 8b 04 25 28 00 	mov    %fs:0x28,%rax
  4015fe:	00 00 
  401600:	48 89 84 24 08 21 00 	mov    %rax,0x2108(%rsp)
  401607:	00 
  401608:	31 c0                	xor    %eax,%eax
  40160a:	89 3d e8 5e 00 00    	mov    %edi,0x5ee8(%rip)        # 4074f8 <check_level>
  401610:	8b 3d 1a 5b 00 00    	mov    0x5b1a(%rip),%edi        # 407130 <target_id>
  401616:	e8 24 1f 00 00       	callq  40353f <gencookie>
  40161b:	89 c7                	mov    %eax,%edi
  40161d:	89 05 e1 5e 00 00    	mov    %eax,0x5ee1(%rip)        # 407504 <cookie>
  401623:	e8 17 1f 00 00       	callq  40353f <gencookie>
  401628:	89 05 d2 5e 00 00    	mov    %eax,0x5ed2(%rip)        # 407500 <authkey>
  40162e:	8b 05 fc 5a 00 00    	mov    0x5afc(%rip),%eax        # 407130 <target_id>
  401634:	8d 78 01             	lea    0x1(%rax),%edi
  401637:	e8 24 fc ff ff       	callq  401260 <srandom@plt>
  40163c:	e8 2f fd ff ff       	callq  401370 <random@plt>
  401641:	48 89 c7             	mov    %rax,%rdi
  401644:	e8 1c 03 00 00       	callq  401965 <scramble>
  401649:	89 c3                	mov    %eax,%ebx
  40164b:	85 ed                	test   %ebp,%ebp
  40164d:	75 54                	jne    4016a3 <initialize_target+0xcf>
  40164f:	b8 00 00 00 00       	mov    $0x0,%eax
  401654:	01 d8                	add    %ebx,%eax
  401656:	0f b7 c0             	movzwl %ax,%eax
  401659:	8d 04 c5 00 01 00 00 	lea    0x100(,%rax,8),%eax
  401660:	89 c0                	mov    %eax,%eax
  401662:	48 89 05 17 5e 00 00 	mov    %rax,0x5e17(%rip)        # 407480 <buf_offset>
  401669:	c6 05 b8 6a 00 00 63 	movb   $0x63,0x6ab8(%rip)        # 408128 <target_prefix>
  401670:	83 3d 11 5e 00 00 00 	cmpl   $0x0,0x5e11(%rip)        # 407488 <notify>
  401677:	74 09                	je     401682 <initialize_target+0xae>
  401679:	83 3d 88 5e 00 00 00 	cmpl   $0x0,0x5e88(%rip)        # 407508 <is_checker>
  401680:	74 3a                	je     4016bc <initialize_target+0xe8>
  401682:	48 8b 84 24 08 21 00 	mov    0x2108(%rsp),%rax
  401689:	00 
  40168a:	64 48 33 04 25 28 00 	xor    %fs:0x28,%rax
  401691:	00 00 
  401693:	0f 85 db 00 00 00    	jne    401774 <initialize_target+0x1a0>
  401699:	48 81 c4 18 21 00 00 	add    $0x2118,%rsp
  4016a0:	5b                   	pop    %rbx
  4016a1:	5d                   	pop    %rbp
  4016a2:	c3                   	retq   
  4016a3:	bf 00 00 00 00       	mov    $0x0,%edi
  4016a8:	e8 b3 fc ff ff       	callq  401360 <time@plt>
  4016ad:	48 89 c7             	mov    %rax,%rdi
  4016b0:	e8 ab fb ff ff       	callq  401260 <srandom@plt>
  4016b5:	e8 b6 fc ff ff       	callq  401370 <random@plt>
  4016ba:	eb 98                	jmp    401654 <initialize_target+0x80>
  4016bc:	48 89 e7             	mov    %rsp,%rdi
  4016bf:	be 00 01 00 00       	mov    $0x100,%esi
  4016c4:	e8 17 fd ff ff       	callq  4013e0 <gethostname@plt>
  4016c9:	89 c5                	mov    %eax,%ebp
  4016cb:	85 c0                	test   %eax,%eax
  4016cd:	75 26                	jne    4016f5 <initialize_target+0x121>
  4016cf:	89 c3                	mov    %eax,%ebx
  4016d1:	48 63 c3             	movslq %ebx,%rax
  4016d4:	48 8d 15 85 5a 00 00 	lea    0x5a85(%rip),%rdx        # 407160 <host_table>
  4016db:	48 8b 3c c2          	mov    (%rdx,%rax,8),%rdi
  4016df:	48 85 ff             	test   %rdi,%rdi
  4016e2:	74 2c                	je     401710 <initialize_target+0x13c>
  4016e4:	48 89 e6             	mov    %rsp,%rsi
  4016e7:	e8 54 fb ff ff       	callq  401240 <strcasecmp@plt>
  4016ec:	85 c0                	test   %eax,%eax
  4016ee:	74 1b                	je     40170b <initialize_target+0x137>
  4016f0:	83 c3 01             	add    $0x1,%ebx
  4016f3:	eb dc                	jmp    4016d1 <initialize_target+0xfd>
  4016f5:	48 8d 3d ec 29 00 00 	lea    0x29ec(%rip),%rdi        # 4040e8 <_IO_stdin_used+0xe8>
  4016fc:	e8 8f fb ff ff       	callq  401290 <puts@plt>
  401701:	bf 08 00 00 00       	mov    $0x8,%edi
  401706:	e8 e5 fc ff ff       	callq  4013f0 <exit@plt>
  40170b:	bd 01 00 00 00       	mov    $0x1,%ebp
  401710:	85 ed                	test   %ebp,%ebp
  401712:	74 3d                	je     401751 <initialize_target+0x17d>
  401714:	48 8d bc 24 00 01 00 	lea    0x100(%rsp),%rdi
  40171b:	00 
  40171c:	e8 6b 1b 00 00       	callq  40328c <init_driver>
  401721:	85 c0                	test   %eax,%eax
  401723:	0f 89 59 ff ff ff    	jns    401682 <initialize_target+0xae>
  401729:	48 8d 94 24 00 01 00 	lea    0x100(%rsp),%rdx
  401730:	00 
  401731:	48 8d 35 28 2a 00 00 	lea    0x2a28(%rip),%rsi        # 404160 <_IO_stdin_used+0x160>
  401738:	bf 01 00 00 00       	mov    $0x1,%edi
  40173d:	b8 00 00 00 00       	mov    $0x0,%eax
  401742:	e8 59 fc ff ff       	callq  4013a0 <__printf_chk@plt>
  401747:	bf 08 00 00 00       	mov    $0x8,%edi
  40174c:	e8 9f fc ff ff       	callq  4013f0 <exit@plt>
  401751:	48 89 e2             	mov    %rsp,%rdx
  401754:	48 8d 35 c5 29 00 00 	lea    0x29c5(%rip),%rsi        # 404120 <_IO_stdin_used+0x120>
  40175b:	bf 01 00 00 00       	mov    $0x1,%edi
  401760:	b8 00 00 00 00       	mov    $0x0,%eax
  401765:	e8 36 fc ff ff       	callq  4013a0 <__printf_chk@plt>
  40176a:	bf 08 00 00 00       	mov    $0x8,%edi
  40176f:	e8 7c fc ff ff       	callq  4013f0 <exit@plt>
  401774:	e8 37 fb ff ff       	callq  4012b0 <__stack_chk_fail@plt>

0000000000401779 <main>:
  401779:	41 56                	push   %r14
  40177b:	41 55                	push   %r13
  40177d:	41 54                	push   %r12
  40177f:	55                   	push   %rbp
  401780:	53                   	push   %rbx
  401781:	89 fd                	mov    %edi,%ebp
  401783:	48 89 f3             	mov    %rsi,%rbx
  401786:	48 c7 c6 4f 25 40 00 	mov    $0x40254f,%rsi
  40178d:	bf 0b 00 00 00       	mov    $0xb,%edi
  401792:	e8 79 fb ff ff       	callq  401310 <signal@plt>
  401797:	48 c7 c6 f9 24 40 00 	mov    $0x4024f9,%rsi
  40179e:	bf 07 00 00 00       	mov    $0x7,%edi
  4017a3:	e8 68 fb ff ff       	callq  401310 <signal@plt>
  4017a8:	48 c7 c6 a5 25 40 00 	mov    $0x4025a5,%rsi
  4017af:	bf 04 00 00 00       	mov    $0x4,%edi
  4017b4:	e8 57 fb ff ff       	callq  401310 <signal@plt>
  4017b9:	83 3d 48 5d 00 00 00 	cmpl   $0x0,0x5d48(%rip)        # 407508 <is_checker>
  4017c0:	75 26                	jne    4017e8 <main+0x6f>
  4017c2:	4c 8d 25 64 2a 00 00 	lea    0x2a64(%rip),%r12        # 40422d <_IO_stdin_used+0x22d>
  4017c9:	48 8b 05 d0 5c 00 00 	mov    0x5cd0(%rip),%rax        # 4074a0 <stdin@@GLIBC_2.2.5>
  4017d0:	48 89 05 19 5d 00 00 	mov    %rax,0x5d19(%rip)        # 4074f0 <infile>
  4017d7:	41 bd 00 00 00 00    	mov    $0x0,%r13d
  4017dd:	41 be 00 00 00 00    	mov    $0x0,%r14d
  4017e3:	e9 8d 00 00 00       	jmpq   401875 <main+0xfc>
  4017e8:	48 c7 c6 fb 25 40 00 	mov    $0x4025fb,%rsi
  4017ef:	bf 0e 00 00 00       	mov    $0xe,%edi
  4017f4:	e8 17 fb ff ff       	callq  401310 <signal@plt>
  4017f9:	bf 05 00 00 00       	mov    $0x5,%edi
  4017fe:	e8 dd fa ff ff       	callq  4012e0 <alarm@plt>
  401803:	4c 8d 25 1b 2a 00 00 	lea    0x2a1b(%rip),%r12        # 404225 <_IO_stdin_used+0x225>
  40180a:	eb bd                	jmp    4017c9 <main+0x50>
  40180c:	48 8b 3b             	mov    (%rbx),%rdi
  40180f:	e8 22 fd ff ff       	callq  401536 <usage>
  401814:	48 8d 35 db 2a 00 00 	lea    0x2adb(%rip),%rsi        # 4042f6 <_IO_stdin_used+0x2f6>
  40181b:	48 8b 3d 86 5c 00 00 	mov    0x5c86(%rip),%rdi        # 4074a8 <optarg@@GLIBC_2.2.5>
  401822:	e8 89 fb ff ff       	callq  4013b0 <fopen@plt>
  401827:	48 89 05 c2 5c 00 00 	mov    %rax,0x5cc2(%rip)        # 4074f0 <infile>
  40182e:	48 85 c0             	test   %rax,%rax
  401831:	75 42                	jne    401875 <main+0xfc>
  401833:	48 8b 0d 6e 5c 00 00 	mov    0x5c6e(%rip),%rcx        # 4074a8 <optarg@@GLIBC_2.2.5>
  40183a:	48 8d 15 f1 29 00 00 	lea    0x29f1(%rip),%rdx        # 404232 <_IO_stdin_used+0x232>
  401841:	be 01 00 00 00       	mov    $0x1,%esi
  401846:	48 8b 3d 73 5c 00 00 	mov    0x5c73(%rip),%rdi        # 4074c0 <stderr@@GLIBC_2.2.5>
  40184d:	e8 be fb ff ff       	callq  401410 <__fprintf_chk@plt>
  401852:	b8 01 00 00 00       	mov    $0x1,%eax
  401857:	e9 db 00 00 00       	jmpq   401937 <main+0x1be>
  40185c:	ba 10 00 00 00       	mov    $0x10,%edx
  401861:	be 00 00 00 00       	mov    $0x0,%esi
  401866:	48 8b 3d 3b 5c 00 00 	mov    0x5c3b(%rip),%rdi        # 4074a8 <optarg@@GLIBC_2.2.5>
  40186d:	e8 5e fb ff ff       	callq  4013d0 <strtoul@plt>
  401872:	41 89 c6             	mov    %eax,%r14d
  401875:	4c 89 e2             	mov    %r12,%rdx
  401878:	48 89 de             	mov    %rbx,%rsi
  40187b:	89 ef                	mov    %ebp,%edi
  40187d:	e8 3e fb ff ff       	callq  4013c0 <getopt@plt>
  401882:	3c ff                	cmp    $0xff,%al
  401884:	74 65                	je     4018eb <main+0x172>
  401886:	0f be c8             	movsbl %al,%ecx
  401889:	83 e8 61             	sub    $0x61,%eax
  40188c:	3c 10                	cmp    $0x10,%al
  40188e:	77 3b                	ja     4018cb <main+0x152>
  401890:	0f b6 c0             	movzbl %al,%eax
  401893:	48 8d 15 d6 29 00 00 	lea    0x29d6(%rip),%rdx        # 404270 <_IO_stdin_used+0x270>
  40189a:	48 63 04 82          	movslq (%rdx,%rax,4),%rax
  40189e:	48 01 d0             	add    %rdx,%rax
  4018a1:	3e ff e0             	notrack jmpq *%rax
  4018a4:	ba 0a 00 00 00       	mov    $0xa,%edx
  4018a9:	be 00 00 00 00       	mov    $0x0,%esi
  4018ae:	48 8b 3d f3 5b 00 00 	mov    0x5bf3(%rip),%rdi        # 4074a8 <optarg@@GLIBC_2.2.5>
  4018b5:	e8 86 fa ff ff       	callq  401340 <strtol@plt>
  4018ba:	41 89 c5             	mov    %eax,%r13d
  4018bd:	eb b6                	jmp    401875 <main+0xfc>
  4018bf:	c7 05 bf 5b 00 00 00 	movl   $0x0,0x5bbf(%rip)        # 407488 <notify>
  4018c6:	00 00 00 
  4018c9:	eb aa                	jmp    401875 <main+0xfc>
  4018cb:	89 ca                	mov    %ecx,%edx
  4018cd:	48 8d 35 7b 29 00 00 	lea    0x297b(%rip),%rsi        # 40424f <_IO_stdin_used+0x24f>
  4018d4:	bf 01 00 00 00       	mov    $0x1,%edi
  4018d9:	b8 00 00 00 00       	mov    $0x0,%eax
  4018de:	e8 bd fa ff ff       	callq  4013a0 <__printf_chk@plt>
  4018e3:	48 8b 3b             	mov    (%rbx),%rdi
  4018e6:	e8 4b fc ff ff       	callq  401536 <usage>
  4018eb:	be 00 00 00 00       	mov    $0x0,%esi
  4018f0:	44 89 ef             	mov    %r13d,%edi
  4018f3:	e8 dc fc ff ff       	callq  4015d4 <initialize_target>
  4018f8:	83 3d 09 5c 00 00 00 	cmpl   $0x0,0x5c09(%rip)        # 407508 <is_checker>
  4018ff:	74 09                	je     40190a <main+0x191>
  401901:	44 39 35 f8 5b 00 00 	cmp    %r14d,0x5bf8(%rip)        # 407500 <authkey>
  401908:	75 36                	jne    401940 <main+0x1c7>
  40190a:	8b 15 f4 5b 00 00    	mov    0x5bf4(%rip),%edx        # 407504 <cookie>
  401910:	48 8d 35 4b 29 00 00 	lea    0x294b(%rip),%rsi        # 404262 <_IO_stdin_used+0x262>
  401917:	bf 01 00 00 00       	mov    $0x1,%edi
  40191c:	b8 00 00 00 00       	mov    $0x0,%eax
  401921:	e8 7a fa ff ff       	callq  4013a0 <__printf_chk@plt>
  401926:	48 8b 3d 53 5b 00 00 	mov    0x5b53(%rip),%rdi        # 407480 <buf_offset>
  40192d:	e8 13 0e 00 00       	callq  402745 <stable_launch>
  401932:	b8 00 00 00 00       	mov    $0x0,%eax
  401937:	5b                   	pop    %rbx
  401938:	5d                   	pop    %rbp
  401939:	41 5c                	pop    %r12
  40193b:	41 5d                	pop    %r13
  40193d:	41 5e                	pop    %r14
  40193f:	c3                   	retq   
  401940:	44 89 f2             	mov    %r14d,%edx
  401943:	48 8d 35 3e 28 00 00 	lea    0x283e(%rip),%rsi        # 404188 <_IO_stdin_used+0x188>
  40194a:	bf 01 00 00 00       	mov    $0x1,%edi
  40194f:	b8 00 00 00 00       	mov    $0x0,%eax
  401954:	e8 47 fa ff ff       	callq  4013a0 <__printf_chk@plt>
  401959:	b8 00 00 00 00       	mov    $0x0,%eax
  40195e:	e8 f9 07 00 00       	callq  40215c <check_fail>
  401963:	eb a5                	jmp    40190a <main+0x191>

0000000000401965 <scramble>:
  401965:	48 83 ec 38          	sub    $0x38,%rsp
  401969:	64 48 8b 04 25 28 00 	mov    %fs:0x28,%rax
  401970:	00 00 
  401972:	48 89 44 24 28       	mov    %rax,0x28(%rsp)
  401977:	31 c0                	xor    %eax,%eax
  401979:	83 f8 09             	cmp    $0x9,%eax
  40197c:	77 12                	ja     401990 <scramble+0x2b>
  40197e:	69 d0 a0 3a 00 00    	imul   $0x3aa0,%eax,%edx
  401984:	01 fa                	add    %edi,%edx
  401986:	89 c1                	mov    %eax,%ecx
  401988:	89 14 8c             	mov    %edx,(%rsp,%rcx,4)
  40198b:	83 c0 01             	add    $0x1,%eax
  40198e:	eb e9                	jmp    401979 <scramble+0x14>
  401990:	8b 44 24 14          	mov    0x14(%rsp),%eax
  401994:	69 c0 c5 23 00 00    	imul   $0x23c5,%eax,%eax
  40199a:	89 44 24 14          	mov    %eax,0x14(%rsp)
  40199e:	8b 44 24 1c          	mov    0x1c(%rsp),%eax
  4019a2:	69 c0 80 41 00 00    	imul   $0x4180,%eax,%eax
  4019a8:	89 44 24 1c          	mov    %eax,0x1c(%rsp)
  4019ac:	8b 44 24 08          	mov    0x8(%rsp),%eax
  4019b0:	69 c0 84 65 00 00    	imul   $0x6584,%eax,%eax
  4019b6:	89 44 24 08          	mov    %eax,0x8(%rsp)
  4019ba:	8b 44 24 08          	mov    0x8(%rsp),%eax
  4019be:	69 c0 bd a5 00 00    	imul   $0xa5bd,%eax,%eax
  4019c4:	89 44 24 08          	mov    %eax,0x8(%rsp)
  4019c8:	8b 44 24 18          	mov    0x18(%rsp),%eax
  4019cc:	69 c0 0d 58 00 00    	imul   $0x580d,%eax,%eax
  4019d2:	89 44 24 18          	mov    %eax,0x18(%rsp)
  4019d6:	8b 04 24             	mov    (%rsp),%eax
  4019d9:	69 c0 03 58 00 00    	imul   $0x5803,%eax,%eax
  4019df:	89 04 24             	mov    %eax,(%rsp)
  4019e2:	8b 44 24 14          	mov    0x14(%rsp),%eax
  4019e6:	69 c0 6f 76 00 00    	imul   $0x766f,%eax,%eax
  4019ec:	89 44 24 14          	mov    %eax,0x14(%rsp)
  4019f0:	8b 44 24 04          	mov    0x4(%rsp),%eax
  4019f4:	69 c0 5e e0 00 00    	imul   $0xe05e,%eax,%eax
  4019fa:	89 44 24 04          	mov    %eax,0x4(%rsp)
  4019fe:	8b 44 24 08          	mov    0x8(%rsp),%eax
  401a02:	69 c0 88 84 00 00    	imul   $0x8488,%eax,%eax
  401a08:	89 44 24 08          	mov    %eax,0x8(%rsp)
  401a0c:	8b 44 24 10          	mov    0x10(%rsp),%eax
  401a10:	69 c0 de 93 00 00    	imul   $0x93de,%eax,%eax
  401a16:	89 44 24 10          	mov    %eax,0x10(%rsp)
  401a1a:	8b 44 24 24          	mov    0x24(%rsp),%eax
  401a1e:	69 c0 22 05 00 00    	imul   $0x522,%eax,%eax
  401a24:	89 44 24 24          	mov    %eax,0x24(%rsp)
  401a28:	8b 04 24             	mov    (%rsp),%eax
  401a2b:	69 c0 4c 0d 00 00    	imul   $0xd4c,%eax,%eax
  401a31:	89 04 24             	mov    %eax,(%rsp)
  401a34:	8b 44 24 1c          	mov    0x1c(%rsp),%eax
  401a38:	69 c0 64 5b 00 00    	imul   $0x5b64,%eax,%eax
  401a3e:	89 44 24 1c          	mov    %eax,0x1c(%rsp)
  401a42:	8b 44 24 24          	mov    0x24(%rsp),%eax
  401a46:	69 c0 18 62 00 00    	imul   $0x6218,%eax,%eax
  401a4c:	89 44 24 24          	mov    %eax,0x24(%rsp)
  401a50:	8b 44 24 18          	mov    0x18(%rsp),%eax
  401a54:	69 c0 52 8b 00 00    	imul   $0x8b52,%eax,%eax
  401a5a:	89 44 24 18          	mov    %eax,0x18(%rsp)
  401a5e:	8b 44 24 0c          	mov    0xc(%rsp),%eax
  401a62:	69 c0 e4 a2 00 00    	imul   $0xa2e4,%eax,%eax
  401a68:	89 44 24 0c          	mov    %eax,0xc(%rsp)
  401a6c:	8b 44 24 20          	mov    0x20(%rsp),%eax
  401a70:	69 c0 0b 76 00 00    	imul   $0x760b,%eax,%eax
  401a76:	89 44 24 20          	mov    %eax,0x20(%rsp)
  401a7a:	8b 44 24 14          	mov    0x14(%rsp),%eax
  401a7e:	69 c0 1a 4f 00 00    	imul   $0x4f1a,%eax,%eax
  401a84:	89 44 24 14          	mov    %eax,0x14(%rsp)
  401a88:	8b 44 24 14          	mov    0x14(%rsp),%eax
  401a8c:	69 c0 0c 74 00 00    	imul   $0x740c,%eax,%eax
  401a92:	89 44 24 14          	mov    %eax,0x14(%rsp)
  401a96:	8b 44 24 18          	mov    0x18(%rsp),%eax
  401a9a:	69 c0 9c fd 00 00    	imul   $0xfd9c,%eax,%eax
  401aa0:	89 44 24 18          	mov    %eax,0x18(%rsp)
  401aa4:	8b 44 24 0c          	mov    0xc(%rsp),%eax
  401aa8:	69 c0 3d 4b 00 00    	imul   $0x4b3d,%eax,%eax
  401aae:	89 44 24 0c          	mov    %eax,0xc(%rsp)
  401ab2:	8b 04 24             	mov    (%rsp),%eax
  401ab5:	69 c0 c6 6f 00 00    	imul   $0x6fc6,%eax,%eax
  401abb:	89 04 24             	mov    %eax,(%rsp)
  401abe:	8b 44 24 08          	mov    0x8(%rsp),%eax
  401ac2:	69 c0 4c 52 00 00    	imul   $0x524c,%eax,%eax
  401ac8:	89 44 24 08          	mov    %eax,0x8(%rsp)
  401acc:	8b 44 24 20          	mov    0x20(%rsp),%eax
  401ad0:	69 c0 59 dd 00 00    	imul   $0xdd59,%eax,%eax
  401ad6:	89 44 24 20          	mov    %eax,0x20(%rsp)
  401ada:	8b 44 24 1c          	mov    0x1c(%rsp),%eax
  401ade:	69 c0 0c 5e 00 00    	imul   $0x5e0c,%eax,%eax
  401ae4:	89 44 24 1c          	mov    %eax,0x1c(%rsp)
  401ae8:	8b 44 24 18          	mov    0x18(%rsp),%eax
  401aec:	69 c0 d8 86 00 00    	imul   $0x86d8,%eax,%eax
  401af2:	89 44 24 18          	mov    %eax,0x18(%rsp)
  401af6:	8b 44 24 20          	mov    0x20(%rsp),%eax
  401afa:	69 c0 94 ab 00 00    	imul   $0xab94,%eax,%eax
  401b00:	89 44 24 20          	mov    %eax,0x20(%rsp)
  401b04:	8b 44 24 08          	mov    0x8(%rsp),%eax
  401b08:	69 c0 37 09 00 00    	imul   $0x937,%eax,%eax
  401b0e:	89 44 24 08          	mov    %eax,0x8(%rsp)
  401b12:	8b 44 24 24          	mov    0x24(%rsp),%eax
  401b16:	69 c0 23 0e 00 00    	imul   $0xe23,%eax,%eax
  401b1c:	89 44 24 24          	mov    %eax,0x24(%rsp)
  401b20:	8b 44 24 1c          	mov    0x1c(%rsp),%eax
  401b24:	69 c0 3c 6f 00 00    	imul   $0x6f3c,%eax,%eax
  401b2a:	89 44 24 1c          	mov    %eax,0x1c(%rsp)
  401b2e:	8b 44 24 10          	mov    0x10(%rsp),%eax
  401b32:	69 c0 a1 a6 00 00    	imul   $0xa6a1,%eax,%eax
  401b38:	89 44 24 10          	mov    %eax,0x10(%rsp)
  401b3c:	8b 44 24 04          	mov    0x4(%rsp),%eax
  401b40:	69 c0 8c 48 00 00    	imul   $0x488c,%eax,%eax
  401b46:	89 44 24 04          	mov    %eax,0x4(%rsp)
  401b4a:	8b 44 24 08          	mov    0x8(%rsp),%eax
  401b4e:	69 c0 84 f6 00 00    	imul   $0xf684,%eax,%eax
  401b54:	89 44 24 08          	mov    %eax,0x8(%rsp)
  401b58:	8b 44 24 10          	mov    0x10(%rsp),%eax
  401b5c:	69 c0 3c f8 00 00    	imul   $0xf83c,%eax,%eax
  401b62:	89 44 24 10          	mov    %eax,0x10(%rsp)
  401b66:	8b 44 24 18          	mov    0x18(%rsp),%eax
  401b6a:	69 c0 7d 8c 00 00    	imul   $0x8c7d,%eax,%eax
  401b70:	89 44 24 18          	mov    %eax,0x18(%rsp)
  401b74:	8b 04 24             	mov    (%rsp),%eax
  401b77:	69 c0 aa 36 00 00    	imul   $0x36aa,%eax,%eax
  401b7d:	89 04 24             	mov    %eax,(%rsp)
  401b80:	8b 44 24 04          	mov    0x4(%rsp),%eax
  401b84:	69 c0 77 4b 00 00    	imul   $0x4b77,%eax,%eax
  401b8a:	89 44 24 04          	mov    %eax,0x4(%rsp)
  401b8e:	8b 44 24 0c          	mov    0xc(%rsp),%eax
  401b92:	69 c0 67 99 00 00    	imul   $0x9967,%eax,%eax
  401b98:	89 44 24 0c          	mov    %eax,0xc(%rsp)
  401b9c:	8b 44 24 18          	mov    0x18(%rsp),%eax
  401ba0:	69 c0 95 f6 00 00    	imul   $0xf695,%eax,%eax
  401ba6:	89 44 24 18          	mov    %eax,0x18(%rsp)
  401baa:	8b 04 24             	mov    (%rsp),%eax
  401bad:	69 c0 97 74 00 00    	imul   $0x7497,%eax,%eax
  401bb3:	89 04 24             	mov    %eax,(%rsp)
  401bb6:	8b 44 24 1c          	mov    0x1c(%rsp),%eax
  401bba:	69 c0 f8 e7 00 00    	imul   $0xe7f8,%eax,%eax
  401bc0:	89 44 24 1c          	mov    %eax,0x1c(%rsp)
  401bc4:	8b 04 24             	mov    (%rsp),%eax
  401bc7:	69 c0 d0 b7 00 00    	imul   $0xb7d0,%eax,%eax
  401bcd:	89 04 24             	mov    %eax,(%rsp)
  401bd0:	8b 44 24 1c          	mov    0x1c(%rsp),%eax
  401bd4:	69 c0 94 8f 00 00    	imul   $0x8f94,%eax,%eax
  401bda:	89 44 24 1c          	mov    %eax,0x1c(%rsp)
  401bde:	8b 44 24 0c          	mov    0xc(%rsp),%eax
  401be2:	69 c0 85 9a 00 00    	imul   $0x9a85,%eax,%eax
  401be8:	89 44 24 0c          	mov    %eax,0xc(%rsp)
  401bec:	8b 44 24 24          	mov    0x24(%rsp),%eax
  401bf0:	69 c0 57 2c 00 00    	imul   $0x2c57,%eax,%eax
  401bf6:	89 44 24 24          	mov    %eax,0x24(%rsp)
  401bfa:	8b 44 24 10          	mov    0x10(%rsp),%eax
  401bfe:	69 c0 2d 37 00 00    	imul   $0x372d,%eax,%eax
  401c04:	89 44 24 10          	mov    %eax,0x10(%rsp)
  401c08:	8b 44 24 14          	mov    0x14(%rsp),%eax
  401c0c:	69 c0 e1 1b 00 00    	imul   $0x1be1,%eax,%eax
  401c12:	89 44 24 14          	mov    %eax,0x14(%rsp)
  401c16:	8b 44 24 24          	mov    0x24(%rsp),%eax
  401c1a:	69 c0 a5 ef 00 00    	imul   $0xefa5,%eax,%eax
  401c20:	89 44 24 24          	mov    %eax,0x24(%rsp)
  401c24:	8b 44 24 18          	mov    0x18(%rsp),%eax
  401c28:	69 c0 60 17 00 00    	imul   $0x1760,%eax,%eax
  401c2e:	89 44 24 18          	mov    %eax,0x18(%rsp)
  401c32:	8b 44 24 1c          	mov    0x1c(%rsp),%eax
  401c36:	69 c0 f5 7c 00 00    	imul   $0x7cf5,%eax,%eax
  401c3c:	89 44 24 1c          	mov    %eax,0x1c(%rsp)
  401c40:	8b 04 24             	mov    (%rsp),%eax
  401c43:	69 c0 ba dd 00 00    	imul   $0xddba,%eax,%eax
  401c49:	89 04 24             	mov    %eax,(%rsp)
  401c4c:	8b 44 24 18          	mov    0x18(%rsp),%eax
  401c50:	69 c0 98 7b 00 00    	imul   $0x7b98,%eax,%eax
  401c56:	89 44 24 18          	mov    %eax,0x18(%rsp)
  401c5a:	8b 44 24 04          	mov    0x4(%rsp),%eax
  401c5e:	69 c0 11 5a 00 00    	imul   $0x5a11,%eax,%eax
  401c64:	89 44 24 04          	mov    %eax,0x4(%rsp)
  401c68:	8b 44 24 20          	mov    0x20(%rsp),%eax
  401c6c:	69 c0 f5 c6 00 00    	imul   $0xc6f5,%eax,%eax
  401c72:	89 44 24 20          	mov    %eax,0x20(%rsp)
  401c76:	8b 44 24 0c          	mov    0xc(%rsp),%eax
  401c7a:	69 c0 bf 8b 00 00    	imul   $0x8bbf,%eax,%eax
  401c80:	89 44 24 0c          	mov    %eax,0xc(%rsp)
  401c84:	8b 44 24 0c          	mov    0xc(%rsp),%eax
  401c88:	69 c0 48 a5 00 00    	imul   $0xa548,%eax,%eax
  401c8e:	89 44 24 0c          	mov    %eax,0xc(%rsp)
  401c92:	8b 44 24 24          	mov    0x24(%rsp),%eax
  401c96:	69 c0 fc 36 00 00    	imul   $0x36fc,%eax,%eax
  401c9c:	89 44 24 24          	mov    %eax,0x24(%rsp)
  401ca0:	8b 44 24 20          	mov    0x20(%rsp),%eax
  401ca4:	69 c0 44 07 00 00    	imul   $0x744,%eax,%eax
  401caa:	89 44 24 20          	mov    %eax,0x20(%rsp)
  401cae:	8b 44 24 04          	mov    0x4(%rsp),%eax
  401cb2:	69 c0 20 1e 00 00    	imul   $0x1e20,%eax,%eax
  401cb8:	89 44 24 04          	mov    %eax,0x4(%rsp)
  401cbc:	8b 44 24 1c          	mov    0x1c(%rsp),%eax
  401cc0:	69 c0 48 64 00 00    	imul   $0x6448,%eax,%eax
  401cc6:	89 44 24 1c          	mov    %eax,0x1c(%rsp)
  401cca:	8b 44 24 1c          	mov    0x1c(%rsp),%eax
  401cce:	69 c0 8a ab 00 00    	imul   $0xab8a,%eax,%eax
  401cd4:	89 44 24 1c          	mov    %eax,0x1c(%rsp)
  401cd8:	8b 44 24 24          	mov    0x24(%rsp),%eax
  401cdc:	69 c0 70 1d 00 00    	imul   $0x1d70,%eax,%eax
  401ce2:	89 44 24 24          	mov    %eax,0x24(%rsp)
  401ce6:	8b 44 24 0c          	mov    0xc(%rsp),%eax
  401cea:	69 c0 2e 1b 00 00    	imul   $0x1b2e,%eax,%eax
  401cf0:	89 44 24 0c          	mov    %eax,0xc(%rsp)
  401cf4:	8b 44 24 08          	mov    0x8(%rsp),%eax
  401cf8:	69 c0 d0 d9 00 00    	imul   $0xd9d0,%eax,%eax
  401cfe:	89 44 24 08          	mov    %eax,0x8(%rsp)
  401d02:	8b 44 24 14          	mov    0x14(%rsp),%eax
  401d06:	69 c0 f7 f4 00 00    	imul   $0xf4f7,%eax,%eax
  401d0c:	89 44 24 14          	mov    %eax,0x14(%rsp)
  401d10:	8b 44 24 10          	mov    0x10(%rsp),%eax
  401d14:	69 c0 6c d6 00 00    	imul   $0xd66c,%eax,%eax
  401d1a:	89 44 24 10          	mov    %eax,0x10(%rsp)
  401d1e:	8b 04 24             	mov    (%rsp),%eax
  401d21:	69 c0 65 0a 00 00    	imul   $0xa65,%eax,%eax
  401d27:	89 04 24             	mov    %eax,(%rsp)
  401d2a:	8b 44 24 20          	mov    0x20(%rsp),%eax
  401d2e:	69 c0 e4 fb 00 00    	imul   $0xfbe4,%eax,%eax
  401d34:	89 44 24 20          	mov    %eax,0x20(%rsp)
  401d38:	8b 44 24 0c          	mov    0xc(%rsp),%eax
  401d3c:	69 c0 03 67 00 00    	imul   $0x6703,%eax,%eax
  401d42:	89 44 24 0c          	mov    %eax,0xc(%rsp)
  401d46:	8b 44 24 08          	mov    0x8(%rsp),%eax
  401d4a:	69 c0 1d b5 00 00    	imul   $0xb51d,%eax,%eax
  401d50:	89 44 24 08          	mov    %eax,0x8(%rsp)
  401d54:	8b 44 24 24          	mov    0x24(%rsp),%eax
  401d58:	69 c0 66 fe 00 00    	imul   $0xfe66,%eax,%eax
  401d5e:	89 44 24 24          	mov    %eax,0x24(%rsp)
  401d62:	8b 44 24 04          	mov    0x4(%rsp),%eax
  401d66:	69 c0 7a 66 00 00    	imul   $0x667a,%eax,%eax
  401d6c:	89 44 24 04          	mov    %eax,0x4(%rsp)
  401d70:	8b 44 24 08          	mov    0x8(%rsp),%eax
  401d74:	69 c0 7e b7 00 00    	imul   $0xb77e,%eax,%eax
  401d7a:	89 44 24 08          	mov    %eax,0x8(%rsp)
  401d7e:	8b 44 24 24          	mov    0x24(%rsp),%eax
  401d82:	69 c0 f3 fb 00 00    	imul   $0xfbf3,%eax,%eax
  401d88:	89 44 24 24          	mov    %eax,0x24(%rsp)
  401d8c:	8b 44 24 0c          	mov    0xc(%rsp),%eax
  401d90:	69 c0 87 0f 00 00    	imul   $0xf87,%eax,%eax
  401d96:	89 44 24 0c          	mov    %eax,0xc(%rsp)
  401d9a:	8b 44 24 1c          	mov    0x1c(%rsp),%eax
  401d9e:	69 c0 16 20 00 00    	imul   $0x2016,%eax,%eax
  401da4:	89 44 24 1c          	mov    %eax,0x1c(%rsp)
  401da8:	8b 44 24 08          	mov    0x8(%rsp),%eax
  401dac:	69 c0 b0 fb 00 00    	imul   $0xfbb0,%eax,%eax
  401db2:	89 44 24 08          	mov    %eax,0x8(%rsp)
  401db6:	8b 44 24 1c          	mov    0x1c(%rsp),%eax
  401dba:	69 c0 7c 82 00 00    	imul   $0x827c,%eax,%eax
  401dc0:	89 44 24 1c          	mov    %eax,0x1c(%rsp)
  401dc4:	8b 44 24 18          	mov    0x18(%rsp),%eax
  401dc8:	69 c0 9c 4a 00 00    	imul   $0x4a9c,%eax,%eax
  401dce:	89 44 24 18          	mov    %eax,0x18(%rsp)
  401dd2:	8b 44 24 1c          	mov    0x1c(%rsp),%eax
  401dd6:	69 c0 6d 49 00 00    	imul   $0x496d,%eax,%eax
  401ddc:	89 44 24 1c          	mov    %eax,0x1c(%rsp)
  401de0:	8b 44 24 24          	mov    0x24(%rsp),%eax
  401de4:	69 c0 11 b3 00 00    	imul   $0xb311,%eax,%eax
  401dea:	89 44 24 24          	mov    %eax,0x24(%rsp)
  401dee:	8b 44 24 04          	mov    0x4(%rsp),%eax
  401df2:	69 c0 45 12 00 00    	imul   $0x1245,%eax,%eax
  401df8:	89 44 24 04          	mov    %eax,0x4(%rsp)
  401dfc:	8b 44 24 1c          	mov    0x1c(%rsp),%eax
  401e00:	69 c0 dd 71 00 00    	imul   $0x71dd,%eax,%eax
  401e06:	89 44 24 1c          	mov    %eax,0x1c(%rsp)
  401e0a:	8b 44 24 08          	mov    0x8(%rsp),%eax
  401e0e:	69 c0 ed 21 00 00    	imul   $0x21ed,%eax,%eax
  401e14:	89 44 24 08          	mov    %eax,0x8(%rsp)
  401e18:	8b 04 24             	mov    (%rsp),%eax
  401e1b:	69 c0 03 d1 00 00    	imul   $0xd103,%eax,%eax
  401e21:	89 04 24             	mov    %eax,(%rsp)
  401e24:	8b 44 24 04          	mov    0x4(%rsp),%eax
  401e28:	69 c0 a3 cb 00 00    	imul   $0xcba3,%eax,%eax
  401e2e:	89 44 24 04          	mov    %eax,0x4(%rsp)
  401e32:	8b 44 24 04          	mov    0x4(%rsp),%eax
  401e36:	69 c0 70 31 00 00    	imul   $0x3170,%eax,%eax
  401e3c:	89 44 24 04          	mov    %eax,0x4(%rsp)
  401e40:	8b 04 24             	mov    (%rsp),%eax
  401e43:	69 c0 cc 04 00 00    	imul   $0x4cc,%eax,%eax
  401e49:	89 04 24             	mov    %eax,(%rsp)
  401e4c:	8b 44 24 10          	mov    0x10(%rsp),%eax
  401e50:	69 c0 db 9f 00 00    	imul   $0x9fdb,%eax,%eax
  401e56:	89 44 24 10          	mov    %eax,0x10(%rsp)
  401e5a:	8b 04 24             	mov    (%rsp),%eax
  401e5d:	69 c0 8d be 00 00    	imul   $0xbe8d,%eax,%eax
  401e63:	89 04 24             	mov    %eax,(%rsp)
  401e66:	8b 04 24             	mov    (%rsp),%eax
  401e69:	69 c0 fb 60 00 00    	imul   $0x60fb,%eax,%eax
  401e6f:	89 04 24             	mov    %eax,(%rsp)
  401e72:	8b 44 24 10          	mov    0x10(%rsp),%eax
  401e76:	69 c0 73 6a 00 00    	imul   $0x6a73,%eax,%eax
  401e7c:	89 44 24 10          	mov    %eax,0x10(%rsp)
  401e80:	8b 44 24 14          	mov    0x14(%rsp),%eax
  401e84:	69 c0 2a 1c 00 00    	imul   $0x1c2a,%eax,%eax
  401e8a:	89 44 24 14          	mov    %eax,0x14(%rsp)
  401e8e:	8b 44 24 08          	mov    0x8(%rsp),%eax
  401e92:	69 c0 8b 73 00 00    	imul   $0x738b,%eax,%eax
  401e98:	89 44 24 08          	mov    %eax,0x8(%rsp)
  401e9c:	8b 04 24             	mov    (%rsp),%eax
  401e9f:	69 c0 3b 49 00 00    	imul   $0x493b,%eax,%eax
  401ea5:	89 04 24             	mov    %eax,(%rsp)
  401ea8:	8b 44 24 18          	mov    0x18(%rsp),%eax
  401eac:	69 c0 5a a6 00 00    	imul   $0xa65a,%eax,%eax
  401eb2:	89 44 24 18          	mov    %eax,0x18(%rsp)
  401eb6:	b8 00 00 00 00       	mov    $0x0,%eax
  401ebb:	ba 00 00 00 00       	mov    $0x0,%edx
  401ec0:	83 f8 09             	cmp    $0x9,%eax
  401ec3:	77 0c                	ja     401ed1 <scramble+0x56c>
  401ec5:	89 c1                	mov    %eax,%ecx
  401ec7:	8b 0c 8c             	mov    (%rsp,%rcx,4),%ecx
  401eca:	01 ca                	add    %ecx,%edx
  401ecc:	83 c0 01             	add    $0x1,%eax
  401ecf:	eb ef                	jmp    401ec0 <scramble+0x55b>
  401ed1:	48 8b 44 24 28       	mov    0x28(%rsp),%rax
  401ed6:	64 48 33 04 25 28 00 	xor    %fs:0x28,%rax
  401edd:	00 00 
  401edf:	75 07                	jne    401ee8 <scramble+0x583>
  401ee1:	89 d0                	mov    %edx,%eax
  401ee3:	48 83 c4 38          	add    $0x38,%rsp
  401ee7:	c3                   	retq   
  401ee8:	e8 c3 f3 ff ff       	callq  4012b0 <__stack_chk_fail@plt>

0000000000401eed <getbuf>:
  401eed:	48 83 ec 38          	sub    $0x38,%rsp
  401ef1:	48 89 e7             	mov    %rsp,%rdi
  401ef4:	e8 9d 02 00 00       	callq  402196 <Gets>
  401ef9:	b8 01 00 00 00       	mov    $0x1,%eax
  401efe:	48 83 c4 38          	add    $0x38,%rsp
  401f02:	c3                   	retq   

0000000000401f03 <touch1>:
  401f03:	50                   	push   %rax
  401f04:	58                   	pop    %rax
  401f05:	48 83 ec 08          	sub    $0x8,%rsp
  401f09:	c7 05 e9 55 00 00 01 	movl   $0x1,0x55e9(%rip)        # 4074fc <vlevel>
  401f10:	00 00 00 
  401f13:	48 8d 3d de 23 00 00 	lea    0x23de(%rip),%rdi        # 4042f8 <_IO_stdin_used+0x2f8>
  401f1a:	e8 71 f3 ff ff       	callq  401290 <puts@plt>
  401f1f:	bf 01 00 00 00       	mov    $0x1,%edi
  401f24:	e8 d8 04 00 00       	callq  402401 <validate>
  401f29:	bf 00 00 00 00       	mov    $0x0,%edi
  401f2e:	e8 bd f4 ff ff       	callq  4013f0 <exit@plt>

0000000000401f33 <touch2>:
  401f33:	50                   	push   %rax
  401f34:	58                   	pop    %rax
  401f35:	48 83 ec 08          	sub    $0x8,%rsp
  401f39:	89 fa                	mov    %edi,%edx
  401f3b:	c7 05 b7 55 00 00 02 	movl   $0x2,0x55b7(%rip)        # 4074fc <vlevel>
  401f42:	00 00 00 
  401f45:	39 3d b9 55 00 00    	cmp    %edi,0x55b9(%rip)        # 407504 <cookie>
  401f4b:	74 2a                	je     401f77 <touch2+0x44>
  401f4d:	48 8d 35 f4 23 00 00 	lea    0x23f4(%rip),%rsi        # 404348 <_IO_stdin_used+0x348>
  401f54:	bf 01 00 00 00       	mov    $0x1,%edi
  401f59:	b8 00 00 00 00       	mov    $0x0,%eax
  401f5e:	e8 3d f4 ff ff       	callq  4013a0 <__printf_chk@plt>
  401f63:	bf 02 00 00 00       	mov    $0x2,%edi
  401f68:	e8 64 05 00 00       	callq  4024d1 <fail>
  401f6d:	bf 00 00 00 00       	mov    $0x0,%edi
  401f72:	e8 79 f4 ff ff       	callq  4013f0 <exit@plt>
  401f77:	48 8d 35 a2 23 00 00 	lea    0x23a2(%rip),%rsi        # 404320 <_IO_stdin_used+0x320>
  401f7e:	bf 01 00 00 00       	mov    $0x1,%edi
  401f83:	b8 00 00 00 00       	mov    $0x0,%eax
  401f88:	e8 13 f4 ff ff       	callq  4013a0 <__printf_chk@plt>
  401f8d:	bf 02 00 00 00       	mov    $0x2,%edi
  401f92:	e8 6a 04 00 00       	callq  402401 <validate>
  401f97:	eb d4                	jmp    401f6d <touch2+0x3a>

0000000000401f99 <hexmatch>:
  401f99:	41 55                	push   %r13
  401f9b:	41 54                	push   %r12
  401f9d:	55                   	push   %rbp
  401f9e:	53                   	push   %rbx
  401f9f:	48 81 ec 88 00 00 00 	sub    $0x88,%rsp
  401fa6:	89 fd                	mov    %edi,%ebp
  401fa8:	48 89 f3             	mov    %rsi,%rbx
  401fab:	41 bc 28 00 00 00    	mov    $0x28,%r12d
  401fb1:	64 49 8b 04 24       	mov    %fs:(%r12),%rax
  401fb6:	48 89 44 24 78       	mov    %rax,0x78(%rsp)
  401fbb:	31 c0                	xor    %eax,%eax
  401fbd:	e8 ae f3 ff ff       	callq  401370 <random@plt>
  401fc2:	48 89 c1             	mov    %rax,%rcx
  401fc5:	48 ba 0b d7 a3 70 3d 	movabs $0xa3d70a3d70a3d70b,%rdx
  401fcc:	0a d7 a3 
  401fcf:	48 f7 ea             	imul   %rdx
  401fd2:	48 01 ca             	add    %rcx,%rdx
  401fd5:	48 c1 fa 06          	sar    $0x6,%rdx
  401fd9:	48 89 c8             	mov    %rcx,%rax
  401fdc:	48 c1 f8 3f          	sar    $0x3f,%rax
  401fe0:	48 29 c2             	sub    %rax,%rdx
  401fe3:	48 8d 04 92          	lea    (%rdx,%rdx,4),%rax
  401fe7:	48 8d 04 80          	lea    (%rax,%rax,4),%rax
  401feb:	48 c1 e0 02          	shl    $0x2,%rax
  401fef:	48 29 c1             	sub    %rax,%rcx
  401ff2:	4c 8d 2c 0c          	lea    (%rsp,%rcx,1),%r13
  401ff6:	41 89 e8             	mov    %ebp,%r8d
  401ff9:	48 8d 0d 15 23 00 00 	lea    0x2315(%rip),%rcx        # 404315 <_IO_stdin_used+0x315>
  402000:	48 c7 c2 ff ff ff ff 	mov    $0xffffffffffffffff,%rdx
  402007:	be 01 00 00 00       	mov    $0x1,%esi
  40200c:	4c 89 ef             	mov    %r13,%rdi
  40200f:	b8 00 00 00 00       	mov    $0x0,%eax
  402014:	e8 17 f4 ff ff       	callq  401430 <__sprintf_chk@plt>
  402019:	ba 09 00 00 00       	mov    $0x9,%edx
  40201e:	4c 89 ee             	mov    %r13,%rsi
  402021:	48 89 df             	mov    %rbx,%rdi
  402024:	e8 47 f2 ff ff       	callq  401270 <strncmp@plt>
  402029:	85 c0                	test   %eax,%eax
  40202b:	0f 94 c0             	sete   %al
  40202e:	48 8b 5c 24 78       	mov    0x78(%rsp),%rbx
  402033:	64 49 33 1c 24       	xor    %fs:(%r12),%rbx
  402038:	75 11                	jne    40204b <hexmatch+0xb2>
  40203a:	0f b6 c0             	movzbl %al,%eax
  40203d:	48 81 c4 88 00 00 00 	add    $0x88,%rsp
  402044:	5b                   	pop    %rbx
  402045:	5d                   	pop    %rbp
  402046:	41 5c                	pop    %r12
  402048:	41 5d                	pop    %r13
  40204a:	c3                   	retq   
  40204b:	e8 60 f2 ff ff       	callq  4012b0 <__stack_chk_fail@plt>

0000000000402050 <touch3>:
  402050:	53                   	push   %rbx
  402051:	48 89 fb             	mov    %rdi,%rbx
  402054:	c7 05 9e 54 00 00 03 	movl   $0x3,0x549e(%rip)        # 4074fc <vlevel>
  40205b:	00 00 00 
  40205e:	48 89 fe             	mov    %rdi,%rsi
  402061:	8b 3d 9d 54 00 00    	mov    0x549d(%rip),%edi        # 407504 <cookie>
  402067:	e8 2d ff ff ff       	callq  401f99 <hexmatch>
  40206c:	85 c0                	test   %eax,%eax
  40206e:	74 2d                	je     40209d <touch3+0x4d>
  402070:	48 89 da             	mov    %rbx,%rdx
  402073:	48 8d 35 f6 22 00 00 	lea    0x22f6(%rip),%rsi        # 404370 <_IO_stdin_used+0x370>
  40207a:	bf 01 00 00 00       	mov    $0x1,%edi
  40207f:	b8 00 00 00 00       	mov    $0x0,%eax
  402084:	e8 17 f3 ff ff       	callq  4013a0 <__printf_chk@plt>
  402089:	bf 03 00 00 00       	mov    $0x3,%edi
  40208e:	e8 6e 03 00 00       	callq  402401 <validate>
  402093:	bf 00 00 00 00       	mov    $0x0,%edi
  402098:	e8 53 f3 ff ff       	callq  4013f0 <exit@plt>
  40209d:	48 89 da             	mov    %rbx,%rdx
  4020a0:	48 8d 35 f1 22 00 00 	lea    0x22f1(%rip),%rsi        # 404398 <_IO_stdin_used+0x398>
  4020a7:	bf 01 00 00 00       	mov    $0x1,%edi
  4020ac:	b8 00 00 00 00       	mov    $0x0,%eax
  4020b1:	e8 ea f2 ff ff       	callq  4013a0 <__printf_chk@plt>
  4020b6:	bf 03 00 00 00       	mov    $0x3,%edi
  4020bb:	e8 11 04 00 00       	callq  4024d1 <fail>
  4020c0:	eb d1                	jmp    402093 <touch3+0x43>

00000000004020c2 <test>:
  4020c2:	48 83 ec 08          	sub    $0x8,%rsp
  4020c6:	b8 00 00 00 00       	mov    $0x0,%eax
  4020cb:	e8 1d fe ff ff       	callq  401eed <getbuf>
  4020d0:	89 c2                	mov    %eax,%edx
  4020d2:	48 8d 35 e7 22 00 00 	lea    0x22e7(%rip),%rsi        # 4043c0 <_IO_stdin_used+0x3c0>
  4020d9:	bf 01 00 00 00       	mov    $0x1,%edi
  4020de:	b8 00 00 00 00       	mov    $0x0,%eax
  4020e3:	e8 b8 f2 ff ff       	callq  4013a0 <__printf_chk@plt>
  4020e8:	48 83 c4 08          	add    $0x8,%rsp
  4020ec:	c3                   	retq   

00000000004020ed <save_char>:
  4020ed:	8b 05 31 60 00 00    	mov    0x6031(%rip),%eax        # 408124 <gets_cnt>
  4020f3:	3d ff 03 00 00       	cmp    $0x3ff,%eax
  4020f8:	7f 4a                	jg     402144 <save_char+0x57>
  4020fa:	89 f9                	mov    %edi,%ecx
  4020fc:	c0 e9 04             	shr    $0x4,%cl
  4020ff:	8d 14 40             	lea    (%rax,%rax,2),%edx
  402102:	4c 8d 05 d7 25 00 00 	lea    0x25d7(%rip),%r8        # 4046e0 <trans_char>
  402109:	83 e1 0f             	and    $0xf,%ecx
  40210c:	45 0f b6 0c 08       	movzbl (%r8,%rcx,1),%r9d
  402111:	48 8d 0d 08 54 00 00 	lea    0x5408(%rip),%rcx        # 407520 <gets_buf>
  402118:	48 63 f2             	movslq %edx,%rsi
  40211b:	44 88 0c 31          	mov    %r9b,(%rcx,%rsi,1)
  40211f:	8d 72 01             	lea    0x1(%rdx),%esi
  402122:	83 e7 0f             	and    $0xf,%edi
  402125:	41 0f b6 3c 38       	movzbl (%r8,%rdi,1),%edi
  40212a:	48 63 f6             	movslq %esi,%rsi
  40212d:	40 88 3c 31          	mov    %dil,(%rcx,%rsi,1)
  402131:	83 c2 02             	add    $0x2,%edx
  402134:	48 63 d2             	movslq %edx,%rdx
  402137:	c6 04 11 20          	movb   $0x20,(%rcx,%rdx,1)
  40213b:	83 c0 01             	add    $0x1,%eax
  40213e:	89 05 e0 5f 00 00    	mov    %eax,0x5fe0(%rip)        # 408124 <gets_cnt>
  402144:	c3                   	retq   

0000000000402145 <save_term>:
  402145:	8b 05 d9 5f 00 00    	mov    0x5fd9(%rip),%eax        # 408124 <gets_cnt>
  40214b:	8d 04 40             	lea    (%rax,%rax,2),%eax
  40214e:	48 98                	cltq   
  402150:	48 8d 15 c9 53 00 00 	lea    0x53c9(%rip),%rdx        # 407520 <gets_buf>
  402157:	c6 04 02 00          	movb   $0x0,(%rdx,%rax,1)
  40215b:	c3                   	retq   

000000000040215c <check_fail>:
  40215c:	50                   	push   %rax
  40215d:	58                   	pop    %rax
  40215e:	48 83 ec 08          	sub    $0x8,%rsp
  402162:	0f be 15 bf 5f 00 00 	movsbl 0x5fbf(%rip),%edx        # 408128 <target_prefix>
  402169:	4c 8d 05 b0 53 00 00 	lea    0x53b0(%rip),%r8        # 407520 <gets_buf>
  402170:	8b 0d 82 53 00 00    	mov    0x5382(%rip),%ecx        # 4074f8 <check_level>
  402176:	48 8d 35 66 22 00 00 	lea    0x2266(%rip),%rsi        # 4043e3 <_IO_stdin_used+0x3e3>
  40217d:	bf 01 00 00 00       	mov    $0x1,%edi
  402182:	b8 00 00 00 00       	mov    $0x0,%eax
  402187:	e8 14 f2 ff ff       	callq  4013a0 <__printf_chk@plt>
  40218c:	bf 01 00 00 00       	mov    $0x1,%edi
  402191:	e8 5a f2 ff ff       	callq  4013f0 <exit@plt>

0000000000402196 <Gets>:
  402196:	41 54                	push   %r12
  402198:	55                   	push   %rbp
  402199:	53                   	push   %rbx
  40219a:	49 89 fc             	mov    %rdi,%r12
  40219d:	c7 05 7d 5f 00 00 00 	movl   $0x0,0x5f7d(%rip)        # 408124 <gets_cnt>
  4021a4:	00 00 00 
  4021a7:	48 89 fb             	mov    %rdi,%rbx
  4021aa:	48 8b 3d 3f 53 00 00 	mov    0x533f(%rip),%rdi        # 4074f0 <infile>
  4021b1:	e8 6a f2 ff ff       	callq  401420 <getc@plt>
  4021b6:	83 f8 ff             	cmp    $0xffffffff,%eax
  4021b9:	74 18                	je     4021d3 <Gets+0x3d>
  4021bb:	83 f8 0a             	cmp    $0xa,%eax
  4021be:	74 13                	je     4021d3 <Gets+0x3d>
  4021c0:	48 8d 6b 01          	lea    0x1(%rbx),%rbp
  4021c4:	88 03                	mov    %al,(%rbx)
  4021c6:	0f b6 f8             	movzbl %al,%edi
  4021c9:	e8 1f ff ff ff       	callq  4020ed <save_char>
  4021ce:	48 89 eb             	mov    %rbp,%rbx
  4021d1:	eb d7                	jmp    4021aa <Gets+0x14>
  4021d3:	c6 03 00             	movb   $0x0,(%rbx)
  4021d6:	b8 00 00 00 00       	mov    $0x0,%eax
  4021db:	e8 65 ff ff ff       	callq  402145 <save_term>
  4021e0:	4c 89 e0             	mov    %r12,%rax
  4021e3:	5b                   	pop    %rbx
  4021e4:	5d                   	pop    %rbp
  4021e5:	41 5c                	pop    %r12
  4021e7:	c3                   	retq   

00000000004021e8 <notify_server>:
  4021e8:	55                   	push   %rbp
  4021e9:	53                   	push   %rbx
  4021ea:	4c 8d 9c 24 00 c0 ff 	lea    -0x4000(%rsp),%r11
  4021f1:	ff 
  4021f2:	48 81 ec 00 10 00 00 	sub    $0x1000,%rsp
  4021f9:	48 83 0c 24 00       	orq    $0x0,(%rsp)
  4021fe:	4c 39 dc             	cmp    %r11,%rsp
  402201:	75 ef                	jne    4021f2 <notify_server+0xa>
  402203:	48 83 ec 18          	sub    $0x18,%rsp
  402207:	64 48 8b 04 25 28 00 	mov    %fs:0x28,%rax
  40220e:	00 00 
  402210:	48 89 84 24 08 40 00 	mov    %rax,0x4008(%rsp)
  402217:	00 
  402218:	31 c0                	xor    %eax,%eax
  40221a:	83 3d e7 52 00 00 00 	cmpl   $0x0,0x52e7(%rip)        # 407508 <is_checker>
  402221:	0f 85 26 01 00 00    	jne    40234d <notify_server+0x165>
  402227:	89 fb                	mov    %edi,%ebx
  402229:	81 3d f1 5e 00 00 9c 	cmpl   $0x1f9c,0x5ef1(%rip)        # 408124 <gets_cnt>
  402230:	1f 00 00 
  402233:	7f 18                	jg     40224d <notify_server+0x65>
  402235:	0f be 05 ec 5e 00 00 	movsbl 0x5eec(%rip),%eax        # 408128 <target_prefix>
  40223c:	83 3d 45 52 00 00 00 	cmpl   $0x0,0x5245(%rip)        # 407488 <notify>
  402243:	74 23                	je     402268 <notify_server+0x80>
  402245:	8b 15 b5 52 00 00    	mov    0x52b5(%rip),%edx        # 407500 <authkey>
  40224b:	eb 20                	jmp    40226d <notify_server+0x85>
  40224d:	48 8d 35 c4 22 00 00 	lea    0x22c4(%rip),%rsi        # 404518 <_IO_stdin_used+0x518>
  402254:	bf 01 00 00 00       	mov    $0x1,%edi
  402259:	e8 42 f1 ff ff       	callq  4013a0 <__printf_chk@plt>
  40225e:	bf 01 00 00 00       	mov    $0x1,%edi
  402263:	e8 88 f1 ff ff       	callq  4013f0 <exit@plt>
  402268:	ba ff ff ff ff       	mov    $0xffffffff,%edx
  40226d:	85 db                	test   %ebx,%ebx
  40226f:	0f 84 98 00 00 00    	je     40230d <notify_server+0x125>
  402275:	48 8d 2d 82 21 00 00 	lea    0x2182(%rip),%rbp        # 4043fe <_IO_stdin_used+0x3fe>
  40227c:	48 89 e7             	mov    %rsp,%rdi
  40227f:	48 8d 0d 9a 52 00 00 	lea    0x529a(%rip),%rcx        # 407520 <gets_buf>
  402286:	51                   	push   %rcx
  402287:	56                   	push   %rsi
  402288:	50                   	push   %rax
  402289:	52                   	push   %rdx
  40228a:	49 89 e9             	mov    %rbp,%r9
  40228d:	44 8b 05 9c 4e 00 00 	mov    0x4e9c(%rip),%r8d        # 407130 <target_id>
  402294:	48 8d 0d 68 21 00 00 	lea    0x2168(%rip),%rcx        # 404403 <_IO_stdin_used+0x403>
  40229b:	ba 00 20 00 00       	mov    $0x2000,%edx
  4022a0:	be 01 00 00 00       	mov    $0x1,%esi
  4022a5:	b8 00 00 00 00       	mov    $0x0,%eax
  4022aa:	e8 81 f1 ff ff       	callq  401430 <__sprintf_chk@plt>
  4022af:	48 83 c4 20          	add    $0x20,%rsp
  4022b3:	83 3d ce 51 00 00 00 	cmpl   $0x0,0x51ce(%rip)        # 407488 <notify>
  4022ba:	0f 84 ae 00 00 00    	je     40236e <notify_server+0x186>
  4022c0:	85 db                	test   %ebx,%ebx
  4022c2:	74 7d                	je     402341 <notify_server+0x159>
  4022c4:	48 89 e1             	mov    %rsp,%rcx
  4022c7:	4c 8d 8c 24 00 20 00 	lea    0x2000(%rsp),%r9
  4022ce:	00 
  4022cf:	41 b8 00 00 00 00    	mov    $0x0,%r8d
  4022d5:	48 8b 15 6c 4e 00 00 	mov    0x4e6c(%rip),%rdx        # 407148 <lab>
  4022dc:	48 8b 35 6d 4e 00 00 	mov    0x4e6d(%rip),%rsi        # 407150 <course>
  4022e3:	48 8b 3d 56 4e 00 00 	mov    0x4e56(%rip),%rdi        # 407140 <user_id>
  4022ea:	e8 a9 11 00 00       	callq  403498 <driver_post>
  4022ef:	85 c0                	test   %eax,%eax
  4022f1:	78 26                	js     402319 <notify_server+0x131>
  4022f3:	48 8d 3d 4e 22 00 00 	lea    0x224e(%rip),%rdi        # 404548 <_IO_stdin_used+0x548>
  4022fa:	e8 91 ef ff ff       	callq  401290 <puts@plt>
  4022ff:	48 8d 3d 25 21 00 00 	lea    0x2125(%rip),%rdi        # 40442b <_IO_stdin_used+0x42b>
  402306:	e8 85 ef ff ff       	callq  401290 <puts@plt>
  40230b:	eb 40                	jmp    40234d <notify_server+0x165>
  40230d:	48 8d 2d e5 20 00 00 	lea    0x20e5(%rip),%rbp        # 4043f9 <_IO_stdin_used+0x3f9>
  402314:	e9 63 ff ff ff       	jmpq   40227c <notify_server+0x94>
  402319:	48 8d 94 24 00 20 00 	lea    0x2000(%rsp),%rdx
  402320:	00 
  402321:	48 8d 35 f7 20 00 00 	lea    0x20f7(%rip),%rsi        # 40441f <_IO_stdin_used+0x41f>
  402328:	bf 01 00 00 00       	mov    $0x1,%edi
  40232d:	b8 00 00 00 00       	mov    $0x0,%eax
  402332:	e8 69 f0 ff ff       	callq  4013a0 <__printf_chk@plt>
  402337:	bf 01 00 00 00       	mov    $0x1,%edi
  40233c:	e8 af f0 ff ff       	callq  4013f0 <exit@plt>
  402341:	48 8d 3d ed 20 00 00 	lea    0x20ed(%rip),%rdi        # 404435 <_IO_stdin_used+0x435>
  402348:	e8 43 ef ff ff       	callq  401290 <puts@plt>
  40234d:	48 8b 84 24 08 40 00 	mov    0x4008(%rsp),%rax
  402354:	00 
  402355:	64 48 33 04 25 28 00 	xor    %fs:0x28,%rax
  40235c:	00 00 
  40235e:	0f 85 98 00 00 00    	jne    4023fc <notify_server+0x214>
  402364:	48 81 c4 18 40 00 00 	add    $0x4018,%rsp
  40236b:	5b                   	pop    %rbx
  40236c:	5d                   	pop    %rbp
  40236d:	c3                   	retq   
  40236e:	48 89 ea             	mov    %rbp,%rdx
  402371:	48 8d 35 08 22 00 00 	lea    0x2208(%rip),%rsi        # 404580 <_IO_stdin_used+0x580>
  402378:	bf 01 00 00 00       	mov    $0x1,%edi
  40237d:	b8 00 00 00 00       	mov    $0x0,%eax
  402382:	e8 19 f0 ff ff       	callq  4013a0 <__printf_chk@plt>
  402387:	48 8b 15 b2 4d 00 00 	mov    0x4db2(%rip),%rdx        # 407140 <user_id>
  40238e:	48 8d 35 a7 20 00 00 	lea    0x20a7(%rip),%rsi        # 40443c <_IO_stdin_used+0x43c>
  402395:	bf 01 00 00 00       	mov    $0x1,%edi
  40239a:	b8 00 00 00 00       	mov    $0x0,%eax
  40239f:	e8 fc ef ff ff       	callq  4013a0 <__printf_chk@plt>
  4023a4:	48 8b 15 a5 4d 00 00 	mov    0x4da5(%rip),%rdx        # 407150 <course>
  4023ab:	48 8d 35 97 20 00 00 	lea    0x2097(%rip),%rsi        # 404449 <_IO_stdin_used+0x449>
  4023b2:	bf 01 00 00 00       	mov    $0x1,%edi
  4023b7:	b8 00 00 00 00       	mov    $0x0,%eax
  4023bc:	e8 df ef ff ff       	callq  4013a0 <__printf_chk@plt>
  4023c1:	48 8b 15 80 4d 00 00 	mov    0x4d80(%rip),%rdx        # 407148 <lab>
  4023c8:	48 8d 35 86 20 00 00 	lea    0x2086(%rip),%rsi        # 404455 <_IO_stdin_used+0x455>
  4023cf:	bf 01 00 00 00       	mov    $0x1,%edi
  4023d4:	b8 00 00 00 00       	mov    $0x0,%eax
  4023d9:	e8 c2 ef ff ff       	callq  4013a0 <__printf_chk@plt>
  4023de:	48 89 e2             	mov    %rsp,%rdx
  4023e1:	48 8d 35 76 20 00 00 	lea    0x2076(%rip),%rsi        # 40445e <_IO_stdin_used+0x45e>
  4023e8:	bf 01 00 00 00       	mov    $0x1,%edi
  4023ed:	b8 00 00 00 00       	mov    $0x0,%eax
  4023f2:	e8 a9 ef ff ff       	callq  4013a0 <__printf_chk@plt>
  4023f7:	e9 51 ff ff ff       	jmpq   40234d <notify_server+0x165>
  4023fc:	e8 af ee ff ff       	callq  4012b0 <__stack_chk_fail@plt>

0000000000402401 <validate>:
  402401:	53                   	push   %rbx
  402402:	89 fb                	mov    %edi,%ebx
  402404:	83 3d fd 50 00 00 00 	cmpl   $0x0,0x50fd(%rip)        # 407508 <is_checker>
  40240b:	74 72                	je     40247f <validate+0x7e>
  40240d:	39 3d e9 50 00 00    	cmp    %edi,0x50e9(%rip)        # 4074fc <vlevel>
  402413:	75 32                	jne    402447 <validate+0x46>
  402415:	8b 15 dd 50 00 00    	mov    0x50dd(%rip),%edx        # 4074f8 <check_level>
  40241b:	39 fa                	cmp    %edi,%edx
  40241d:	75 3e                	jne    40245d <validate+0x5c>
  40241f:	0f be 15 02 5d 00 00 	movsbl 0x5d02(%rip),%edx        # 408128 <target_prefix>
  402426:	4c 8d 05 f3 50 00 00 	lea    0x50f3(%rip),%r8        # 407520 <gets_buf>
  40242d:	89 f9                	mov    %edi,%ecx
  40242f:	48 8d 35 52 20 00 00 	lea    0x2052(%rip),%rsi        # 404488 <_IO_stdin_used+0x488>
  402436:	bf 01 00 00 00       	mov    $0x1,%edi
  40243b:	b8 00 00 00 00       	mov    $0x0,%eax
  402440:	e8 5b ef ff ff       	callq  4013a0 <__printf_chk@plt>
  402445:	5b                   	pop    %rbx
  402446:	c3                   	retq   
  402447:	48 8d 3d 1c 20 00 00 	lea    0x201c(%rip),%rdi        # 40446a <_IO_stdin_used+0x46a>
  40244e:	e8 3d ee ff ff       	callq  401290 <puts@plt>
  402453:	b8 00 00 00 00       	mov    $0x0,%eax
  402458:	e8 ff fc ff ff       	callq  40215c <check_fail>
  40245d:	89 f9                	mov    %edi,%ecx
  40245f:	48 8d 35 42 21 00 00 	lea    0x2142(%rip),%rsi        # 4045a8 <_IO_stdin_used+0x5a8>
  402466:	bf 01 00 00 00       	mov    $0x1,%edi
  40246b:	b8 00 00 00 00       	mov    $0x0,%eax
  402470:	e8 2b ef ff ff       	callq  4013a0 <__printf_chk@plt>
  402475:	b8 00 00 00 00       	mov    $0x0,%eax
  40247a:	e8 dd fc ff ff       	callq  40215c <check_fail>
  40247f:	39 3d 77 50 00 00    	cmp    %edi,0x5077(%rip)        # 4074fc <vlevel>
  402485:	74 1a                	je     4024a1 <validate+0xa0>
  402487:	48 8d 3d dc 1f 00 00 	lea    0x1fdc(%rip),%rdi        # 40446a <_IO_stdin_used+0x46a>
  40248e:	e8 fd ed ff ff       	callq  401290 <puts@plt>
  402493:	89 de                	mov    %ebx,%esi
  402495:	bf 00 00 00 00       	mov    $0x0,%edi
  40249a:	e8 49 fd ff ff       	callq  4021e8 <notify_server>
  40249f:	eb a4                	jmp    402445 <validate+0x44>
  4024a1:	0f be 0d 80 5c 00 00 	movsbl 0x5c80(%rip),%ecx        # 408128 <target_prefix>
  4024a8:	89 fa                	mov    %edi,%edx
  4024aa:	48 8d 35 1f 21 00 00 	lea    0x211f(%rip),%rsi        # 4045d0 <_IO_stdin_used+0x5d0>
  4024b1:	bf 01 00 00 00       	mov    $0x1,%edi
  4024b6:	b8 00 00 00 00       	mov    $0x0,%eax
  4024bb:	e8 e0 ee ff ff       	callq  4013a0 <__printf_chk@plt>
  4024c0:	89 de                	mov    %ebx,%esi
  4024c2:	bf 01 00 00 00       	mov    $0x1,%edi
  4024c7:	e8 1c fd ff ff       	callq  4021e8 <notify_server>
  4024cc:	e9 74 ff ff ff       	jmpq   402445 <validate+0x44>

00000000004024d1 <fail>:
  4024d1:	48 83 ec 08          	sub    $0x8,%rsp
  4024d5:	83 3d 2c 50 00 00 00 	cmpl   $0x0,0x502c(%rip)        # 407508 <is_checker>
  4024dc:	75 11                	jne    4024ef <fail+0x1e>
  4024de:	89 fe                	mov    %edi,%esi
  4024e0:	bf 00 00 00 00       	mov    $0x0,%edi
  4024e5:	e8 fe fc ff ff       	callq  4021e8 <notify_server>
  4024ea:	48 83 c4 08          	add    $0x8,%rsp
  4024ee:	c3                   	retq   
  4024ef:	b8 00 00 00 00       	mov    $0x0,%eax
  4024f4:	e8 63 fc ff ff       	callq  40215c <check_fail>

00000000004024f9 <bushandler>:
  4024f9:	50                   	push   %rax
  4024fa:	58                   	pop    %rax
  4024fb:	48 83 ec 08          	sub    $0x8,%rsp
  4024ff:	83 3d 02 50 00 00 00 	cmpl   $0x0,0x5002(%rip)        # 407508 <is_checker>
  402506:	74 16                	je     40251e <bushandler+0x25>
  402508:	48 8d 3d 8e 1f 00 00 	lea    0x1f8e(%rip),%rdi        # 40449d <_IO_stdin_used+0x49d>
  40250f:	e8 7c ed ff ff       	callq  401290 <puts@plt>
  402514:	b8 00 00 00 00       	mov    $0x0,%eax
  402519:	e8 3e fc ff ff       	callq  40215c <check_fail>
  40251e:	48 8d 3d e3 20 00 00 	lea    0x20e3(%rip),%rdi        # 404608 <_IO_stdin_used+0x608>
  402525:	e8 66 ed ff ff       	callq  401290 <puts@plt>
  40252a:	48 8d 3d 76 1f 00 00 	lea    0x1f76(%rip),%rdi        # 4044a7 <_IO_stdin_used+0x4a7>
  402531:	e8 5a ed ff ff       	callq  401290 <puts@plt>
  402536:	be 00 00 00 00       	mov    $0x0,%esi
  40253b:	bf 00 00 00 00       	mov    $0x0,%edi
  402540:	e8 a3 fc ff ff       	callq  4021e8 <notify_server>
  402545:	bf 01 00 00 00       	mov    $0x1,%edi
  40254a:	e8 a1 ee ff ff       	callq  4013f0 <exit@plt>

000000000040254f <seghandler>:
  40254f:	50                   	push   %rax
  402550:	58                   	pop    %rax
  402551:	48 83 ec 08          	sub    $0x8,%rsp
  402555:	83 3d ac 4f 00 00 00 	cmpl   $0x0,0x4fac(%rip)        # 407508 <is_checker>
  40255c:	74 16                	je     402574 <seghandler+0x25>
  40255e:	48 8d 3d 58 1f 00 00 	lea    0x1f58(%rip),%rdi        # 4044bd <_IO_stdin_used+0x4bd>
  402565:	e8 26 ed ff ff       	callq  401290 <puts@plt>
  40256a:	b8 00 00 00 00       	mov    $0x0,%eax
  40256f:	e8 e8 fb ff ff       	callq  40215c <check_fail>
  402574:	48 8d 3d ad 20 00 00 	lea    0x20ad(%rip),%rdi        # 404628 <_IO_stdin_used+0x628>
  40257b:	e8 10 ed ff ff       	callq  401290 <puts@plt>
  402580:	48 8d 3d 20 1f 00 00 	lea    0x1f20(%rip),%rdi        # 4044a7 <_IO_stdin_used+0x4a7>
  402587:	e8 04 ed ff ff       	callq  401290 <puts@plt>
  40258c:	be 00 00 00 00       	mov    $0x0,%esi
  402591:	bf 00 00 00 00       	mov    $0x0,%edi
  402596:	e8 4d fc ff ff       	callq  4021e8 <notify_server>
  40259b:	bf 01 00 00 00       	mov    $0x1,%edi
  4025a0:	e8 4b ee ff ff       	callq  4013f0 <exit@plt>

00000000004025a5 <illegalhandler>:
  4025a5:	50                   	push   %rax
  4025a6:	58                   	pop    %rax
  4025a7:	48 83 ec 08          	sub    $0x8,%rsp
  4025ab:	83 3d 56 4f 00 00 00 	cmpl   $0x0,0x4f56(%rip)        # 407508 <is_checker>
  4025b2:	74 16                	je     4025ca <illegalhandler+0x25>
  4025b4:	48 8d 3d 15 1f 00 00 	lea    0x1f15(%rip),%rdi        # 4044d0 <_IO_stdin_used+0x4d0>
  4025bb:	e8 d0 ec ff ff       	callq  401290 <puts@plt>
  4025c0:	b8 00 00 00 00       	mov    $0x0,%eax
  4025c5:	e8 92 fb ff ff       	callq  40215c <check_fail>
  4025ca:	48 8d 3d 7f 20 00 00 	lea    0x207f(%rip),%rdi        # 404650 <_IO_stdin_used+0x650>
  4025d1:	e8 ba ec ff ff       	callq  401290 <puts@plt>
  4025d6:	48 8d 3d ca 1e 00 00 	lea    0x1eca(%rip),%rdi        # 4044a7 <_IO_stdin_used+0x4a7>
  4025dd:	e8 ae ec ff ff       	callq  401290 <puts@plt>
  4025e2:	be 00 00 00 00       	mov    $0x0,%esi
  4025e7:	bf 00 00 00 00       	mov    $0x0,%edi
  4025ec:	e8 f7 fb ff ff       	callq  4021e8 <notify_server>
  4025f1:	bf 01 00 00 00       	mov    $0x1,%edi
  4025f6:	e8 f5 ed ff ff       	callq  4013f0 <exit@plt>

00000000004025fb <sigalrmhandler>:
  4025fb:	50                   	push   %rax
  4025fc:	58                   	pop    %rax
  4025fd:	48 83 ec 08          	sub    $0x8,%rsp
  402601:	83 3d 00 4f 00 00 00 	cmpl   $0x0,0x4f00(%rip)        # 407508 <is_checker>
  402608:	74 16                	je     402620 <sigalrmhandler+0x25>
  40260a:	48 8d 3d d3 1e 00 00 	lea    0x1ed3(%rip),%rdi        # 4044e4 <_IO_stdin_used+0x4e4>
  402611:	e8 7a ec ff ff       	callq  401290 <puts@plt>
  402616:	b8 00 00 00 00       	mov    $0x0,%eax
  40261b:	e8 3c fb ff ff       	callq  40215c <check_fail>
  402620:	ba 05 00 00 00       	mov    $0x5,%edx
  402625:	48 8d 35 54 20 00 00 	lea    0x2054(%rip),%rsi        # 404680 <_IO_stdin_used+0x680>
  40262c:	bf 01 00 00 00       	mov    $0x1,%edi
  402631:	b8 00 00 00 00       	mov    $0x0,%eax
  402636:	e8 65 ed ff ff       	callq  4013a0 <__printf_chk@plt>
  40263b:	be 00 00 00 00       	mov    $0x0,%esi
  402640:	bf 00 00 00 00       	mov    $0x0,%edi
  402645:	e8 9e fb ff ff       	callq  4021e8 <notify_server>
  40264a:	bf 01 00 00 00       	mov    $0x1,%edi
  40264f:	e8 9c ed ff ff       	callq  4013f0 <exit@plt>

0000000000402654 <launch>:
  402654:	55                   	push   %rbp
  402655:	48 89 e5             	mov    %rsp,%rbp
  402658:	48 83 ec 10          	sub    $0x10,%rsp
  40265c:	48 89 fa             	mov    %rdi,%rdx
  40265f:	64 48 8b 04 25 28 00 	mov    %fs:0x28,%rax
  402666:	00 00 
  402668:	48 89 45 f8          	mov    %rax,-0x8(%rbp)
  40266c:	31 c0                	xor    %eax,%eax
  40266e:	48 8d 47 17          	lea    0x17(%rdi),%rax
  402672:	48 89 c1             	mov    %rax,%rcx
  402675:	48 83 e1 f0          	and    $0xfffffffffffffff0,%rcx
  402679:	48 25 00 f0 ff ff    	and    $0xfffffffffffff000,%rax
  40267f:	48 89 e6             	mov    %rsp,%rsi
  402682:	48 29 c6             	sub    %rax,%rsi
  402685:	48 89 f0             	mov    %rsi,%rax
  402688:	48 39 c4             	cmp    %rax,%rsp
  40268b:	74 12                	je     40269f <launch+0x4b>
  40268d:	48 81 ec 00 10 00 00 	sub    $0x1000,%rsp
  402694:	48 83 8c 24 f8 0f 00 	orq    $0x0,0xff8(%rsp)
  40269b:	00 00 
  40269d:	eb e9                	jmp    402688 <launch+0x34>
  40269f:	48 89 c8             	mov    %rcx,%rax
  4026a2:	25 ff 0f 00 00       	and    $0xfff,%eax
  4026a7:	48 29 c4             	sub    %rax,%rsp
  4026aa:	48 85 c0             	test   %rax,%rax
  4026ad:	74 06                	je     4026b5 <launch+0x61>
  4026af:	48 83 4c 04 f8 00    	orq    $0x0,-0x8(%rsp,%rax,1)
  4026b5:	48 8d 7c 24 0f       	lea    0xf(%rsp),%rdi
  4026ba:	48 83 e7 f0          	and    $0xfffffffffffffff0,%rdi
  4026be:	be f4 00 00 00       	mov    $0xf4,%esi
  4026c3:	e8 08 ec ff ff       	callq  4012d0 <memset@plt>
  4026c8:	48 8b 05 d1 4d 00 00 	mov    0x4dd1(%rip),%rax        # 4074a0 <stdin@@GLIBC_2.2.5>
  4026cf:	48 39 05 1a 4e 00 00 	cmp    %rax,0x4e1a(%rip)        # 4074f0 <infile>
  4026d6:	74 3a                	je     402712 <launch+0xbe>
  4026d8:	c7 05 1a 4e 00 00 00 	movl   $0x0,0x4e1a(%rip)        # 4074fc <vlevel>
  4026df:	00 00 00 
  4026e2:	b8 00 00 00 00       	mov    $0x0,%eax
  4026e7:	e8 d6 f9 ff ff       	callq  4020c2 <test>
  4026ec:	83 3d 15 4e 00 00 00 	cmpl   $0x0,0x4e15(%rip)        # 407508 <is_checker>
  4026f3:	75 35                	jne    40272a <launch+0xd6>
  4026f5:	48 8d 3d 08 1e 00 00 	lea    0x1e08(%rip),%rdi        # 404504 <_IO_stdin_used+0x504>
  4026fc:	e8 8f eb ff ff       	callq  401290 <puts@plt>
  402701:	48 8b 45 f8          	mov    -0x8(%rbp),%rax
  402705:	64 48 33 04 25 28 00 	xor    %fs:0x28,%rax
  40270c:	00 00 
  40270e:	75 30                	jne    402740 <launch+0xec>
  402710:	c9                   	leaveq 
  402711:	c3                   	retq   
  402712:	48 8d 35 d3 1d 00 00 	lea    0x1dd3(%rip),%rsi        # 4044ec <_IO_stdin_used+0x4ec>
  402719:	bf 01 00 00 00       	mov    $0x1,%edi
  40271e:	b8 00 00 00 00       	mov    $0x0,%eax
  402723:	e8 78 ec ff ff       	callq  4013a0 <__printf_chk@plt>
  402728:	eb ae                	jmp    4026d8 <launch+0x84>
  40272a:	48 8d 3d c8 1d 00 00 	lea    0x1dc8(%rip),%rdi        # 4044f9 <_IO_stdin_used+0x4f9>
  402731:	e8 5a eb ff ff       	callq  401290 <puts@plt>
  402736:	b8 00 00 00 00       	mov    $0x0,%eax
  40273b:	e8 1c fa ff ff       	callq  40215c <check_fail>
  402740:	e8 6b eb ff ff       	callq  4012b0 <__stack_chk_fail@plt>

0000000000402745 <stable_launch>:
  402745:	53                   	push   %rbx
  402746:	48 89 3d 9b 4d 00 00 	mov    %rdi,0x4d9b(%rip)        # 4074e8 <global_offset>
  40274d:	41 b9 00 00 00 00    	mov    $0x0,%r9d
  402753:	41 b8 00 00 00 00    	mov    $0x0,%r8d
  402759:	b9 32 01 00 00       	mov    $0x132,%ecx
  40275e:	ba 07 00 00 00       	mov    $0x7,%edx
  402763:	be 00 00 10 00       	mov    $0x100000,%esi
  402768:	bf 00 60 58 55       	mov    $0x55586000,%edi
  40276d:	e8 4e eb ff ff       	callq  4012c0 <mmap@plt>
  402772:	48 89 c3             	mov    %rax,%rbx
  402775:	48 3d 00 60 58 55    	cmp    $0x55586000,%rax
  40277b:	75 43                	jne    4027c0 <stable_launch+0x7b>
  40277d:	48 8d 90 f8 ff 0f 00 	lea    0xffff8(%rax),%rdx
  402784:	48 89 15 a5 59 00 00 	mov    %rdx,0x59a5(%rip)        # 408130 <stack_top>
  40278b:	48 89 e0             	mov    %rsp,%rax
  40278e:	48 89 d4             	mov    %rdx,%rsp
  402791:	48 89 c2             	mov    %rax,%rdx
  402794:	48 89 15 45 4d 00 00 	mov    %rdx,0x4d45(%rip)        # 4074e0 <global_save_stack>
  40279b:	48 8b 3d 46 4d 00 00 	mov    0x4d46(%rip),%rdi        # 4074e8 <global_offset>
  4027a2:	e8 ad fe ff ff       	callq  402654 <launch>
  4027a7:	48 8b 05 32 4d 00 00 	mov    0x4d32(%rip),%rax        # 4074e0 <global_save_stack>
  4027ae:	48 89 c4             	mov    %rax,%rsp
  4027b1:	be 00 00 10 00       	mov    $0x100000,%esi
  4027b6:	48 89 df             	mov    %rbx,%rdi
  4027b9:	e8 d2 eb ff ff       	callq  401390 <munmap@plt>
  4027be:	5b                   	pop    %rbx
  4027bf:	c3                   	retq   
  4027c0:	be 00 00 10 00       	mov    $0x100000,%esi
  4027c5:	48 89 c7             	mov    %rax,%rdi
  4027c8:	e8 c3 eb ff ff       	callq  401390 <munmap@plt>
  4027cd:	b9 00 60 58 55       	mov    $0x55586000,%ecx
  4027d2:	48 8d 15 df 1e 00 00 	lea    0x1edf(%rip),%rdx        # 4046b8 <_IO_stdin_used+0x6b8>
  4027d9:	be 01 00 00 00       	mov    $0x1,%esi
  4027de:	48 8b 3d db 4c 00 00 	mov    0x4cdb(%rip),%rdi        # 4074c0 <stderr@@GLIBC_2.2.5>
  4027e5:	b8 00 00 00 00       	mov    $0x0,%eax
  4027ea:	e8 21 ec ff ff       	callq  401410 <__fprintf_chk@plt>
  4027ef:	bf 01 00 00 00       	mov    $0x1,%edi
  4027f4:	e8 f7 eb ff ff       	callq  4013f0 <exit@plt>

00000000004027f9 <rio_readinitb>:
  4027f9:	89 37                	mov    %esi,(%rdi)
  4027fb:	c7 47 04 00 00 00 00 	movl   $0x0,0x4(%rdi)
  402802:	48 8d 47 10          	lea    0x10(%rdi),%rax
  402806:	48 89 47 08          	mov    %rax,0x8(%rdi)
  40280a:	c3                   	retq   

000000000040280b <sigalrm_handler>:
  40280b:	50                   	push   %rax
  40280c:	58                   	pop    %rax
  40280d:	48 83 ec 08          	sub    $0x8,%rsp
  402811:	b9 00 00 00 00       	mov    $0x0,%ecx
  402816:	48 8d 15 d3 1e 00 00 	lea    0x1ed3(%rip),%rdx        # 4046f0 <trans_char+0x10>
  40281d:	be 01 00 00 00       	mov    $0x1,%esi
  402822:	48 8b 3d 97 4c 00 00 	mov    0x4c97(%rip),%rdi        # 4074c0 <stderr@@GLIBC_2.2.5>
  402829:	b8 00 00 00 00       	mov    $0x0,%eax
  40282e:	e8 dd eb ff ff       	callq  401410 <__fprintf_chk@plt>
  402833:	bf 01 00 00 00       	mov    $0x1,%edi
  402838:	e8 b3 eb ff ff       	callq  4013f0 <exit@plt>

000000000040283d <rio_writen>:
  40283d:	41 55                	push   %r13
  40283f:	41 54                	push   %r12
  402841:	55                   	push   %rbp
  402842:	53                   	push   %rbx
  402843:	48 83 ec 08          	sub    $0x8,%rsp
  402847:	41 89 fc             	mov    %edi,%r12d
  40284a:	48 89 f5             	mov    %rsi,%rbp
  40284d:	49 89 d5             	mov    %rdx,%r13
  402850:	48 89 d3             	mov    %rdx,%rbx
  402853:	eb 06                	jmp    40285b <rio_writen+0x1e>
  402855:	48 29 c3             	sub    %rax,%rbx
  402858:	48 01 c5             	add    %rax,%rbp
  40285b:	48 85 db             	test   %rbx,%rbx
  40285e:	74 24                	je     402884 <rio_writen+0x47>
  402860:	48 89 da             	mov    %rbx,%rdx
  402863:	48 89 ee             	mov    %rbp,%rsi
  402866:	44 89 e7             	mov    %r12d,%edi
  402869:	e8 32 ea ff ff       	callq  4012a0 <write@plt>
  40286e:	48 85 c0             	test   %rax,%rax
  402871:	7f e2                	jg     402855 <rio_writen+0x18>
  402873:	e8 d8 e9 ff ff       	callq  401250 <__errno_location@plt>
  402878:	83 38 04             	cmpl   $0x4,(%rax)
  40287b:	75 15                	jne    402892 <rio_writen+0x55>
  40287d:	b8 00 00 00 00       	mov    $0x0,%eax
  402882:	eb d1                	jmp    402855 <rio_writen+0x18>
  402884:	4c 89 e8             	mov    %r13,%rax
  402887:	48 83 c4 08          	add    $0x8,%rsp
  40288b:	5b                   	pop    %rbx
  40288c:	5d                   	pop    %rbp
  40288d:	41 5c                	pop    %r12
  40288f:	41 5d                	pop    %r13
  402891:	c3                   	retq   
  402892:	48 c7 c0 ff ff ff ff 	mov    $0xffffffffffffffff,%rax
  402899:	eb ec                	jmp    402887 <rio_writen+0x4a>

000000000040289b <rio_read>:
  40289b:	41 55                	push   %r13
  40289d:	41 54                	push   %r12
  40289f:	55                   	push   %rbp
  4028a0:	53                   	push   %rbx
  4028a1:	48 83 ec 08          	sub    $0x8,%rsp
  4028a5:	48 89 fb             	mov    %rdi,%rbx
  4028a8:	49 89 f5             	mov    %rsi,%r13
  4028ab:	49 89 d4             	mov    %rdx,%r12
  4028ae:	eb 17                	jmp    4028c7 <rio_read+0x2c>
  4028b0:	e8 9b e9 ff ff       	callq  401250 <__errno_location@plt>
  4028b5:	83 38 04             	cmpl   $0x4,(%rax)
  4028b8:	74 0d                	je     4028c7 <rio_read+0x2c>
  4028ba:	48 c7 c0 ff ff ff ff 	mov    $0xffffffffffffffff,%rax
  4028c1:	eb 54                	jmp    402917 <rio_read+0x7c>
  4028c3:	48 89 6b 08          	mov    %rbp,0x8(%rbx)
  4028c7:	8b 6b 04             	mov    0x4(%rbx),%ebp
  4028ca:	85 ed                	test   %ebp,%ebp
  4028cc:	7f 23                	jg     4028f1 <rio_read+0x56>
  4028ce:	48 8d 6b 10          	lea    0x10(%rbx),%rbp
  4028d2:	8b 3b                	mov    (%rbx),%edi
  4028d4:	ba 00 20 00 00       	mov    $0x2000,%edx
  4028d9:	48 89 ee             	mov    %rbp,%rsi
  4028dc:	e8 1f ea ff ff       	callq  401300 <read@plt>
  4028e1:	89 43 04             	mov    %eax,0x4(%rbx)
  4028e4:	85 c0                	test   %eax,%eax
  4028e6:	78 c8                	js     4028b0 <rio_read+0x15>
  4028e8:	75 d9                	jne    4028c3 <rio_read+0x28>
  4028ea:	b8 00 00 00 00       	mov    $0x0,%eax
  4028ef:	eb 26                	jmp    402917 <rio_read+0x7c>
  4028f1:	89 e8                	mov    %ebp,%eax
  4028f3:	4c 39 e0             	cmp    %r12,%rax
  4028f6:	72 03                	jb     4028fb <rio_read+0x60>
  4028f8:	44 89 e5             	mov    %r12d,%ebp
  4028fb:	4c 63 e5             	movslq %ebp,%r12
  4028fe:	48 8b 73 08          	mov    0x8(%rbx),%rsi
  402902:	4c 89 e2             	mov    %r12,%rdx
  402905:	4c 89 ef             	mov    %r13,%rdi
  402908:	e8 43 ea ff ff       	callq  401350 <memcpy@plt>
  40290d:	4c 01 63 08          	add    %r12,0x8(%rbx)
  402911:	29 6b 04             	sub    %ebp,0x4(%rbx)
  402914:	4c 89 e0             	mov    %r12,%rax
  402917:	48 83 c4 08          	add    $0x8,%rsp
  40291b:	5b                   	pop    %rbx
  40291c:	5d                   	pop    %rbp
  40291d:	41 5c                	pop    %r12
  40291f:	41 5d                	pop    %r13
  402921:	c3                   	retq   

0000000000402922 <rio_readlineb>:
  402922:	41 55                	push   %r13
  402924:	41 54                	push   %r12
  402926:	55                   	push   %rbp
  402927:	53                   	push   %rbx
  402928:	48 83 ec 18          	sub    $0x18,%rsp
  40292c:	49 89 fd             	mov    %rdi,%r13
  40292f:	48 89 f5             	mov    %rsi,%rbp
  402932:	49 89 d4             	mov    %rdx,%r12
  402935:	64 48 8b 04 25 28 00 	mov    %fs:0x28,%rax
  40293c:	00 00 
  40293e:	48 89 44 24 08       	mov    %rax,0x8(%rsp)
  402943:	31 c0                	xor    %eax,%eax
  402945:	bb 01 00 00 00       	mov    $0x1,%ebx
  40294a:	eb 18                	jmp    402964 <rio_readlineb+0x42>
  40294c:	85 c0                	test   %eax,%eax
  40294e:	75 65                	jne    4029b5 <rio_readlineb+0x93>
  402950:	48 83 fb 01          	cmp    $0x1,%rbx
  402954:	75 3d                	jne    402993 <rio_readlineb+0x71>
  402956:	b8 00 00 00 00       	mov    $0x0,%eax
  40295b:	eb 3d                	jmp    40299a <rio_readlineb+0x78>
  40295d:	48 83 c3 01          	add    $0x1,%rbx
  402961:	48 89 d5             	mov    %rdx,%rbp
  402964:	4c 39 e3             	cmp    %r12,%rbx
  402967:	73 2a                	jae    402993 <rio_readlineb+0x71>
  402969:	48 8d 74 24 07       	lea    0x7(%rsp),%rsi
  40296e:	ba 01 00 00 00       	mov    $0x1,%edx
  402973:	4c 89 ef             	mov    %r13,%rdi
  402976:	e8 20 ff ff ff       	callq  40289b <rio_read>
  40297b:	83 f8 01             	cmp    $0x1,%eax
  40297e:	75 cc                	jne    40294c <rio_readlineb+0x2a>
  402980:	48 8d 55 01          	lea    0x1(%rbp),%rdx
  402984:	0f b6 44 24 07       	movzbl 0x7(%rsp),%eax
  402989:	88 45 00             	mov    %al,0x0(%rbp)
  40298c:	3c 0a                	cmp    $0xa,%al
  40298e:	75 cd                	jne    40295d <rio_readlineb+0x3b>
  402990:	48 89 d5             	mov    %rdx,%rbp
  402993:	c6 45 00 00          	movb   $0x0,0x0(%rbp)
  402997:	48 89 d8             	mov    %rbx,%rax
  40299a:	48 8b 4c 24 08       	mov    0x8(%rsp),%rcx
  40299f:	64 48 33 0c 25 28 00 	xor    %fs:0x28,%rcx
  4029a6:	00 00 
  4029a8:	75 14                	jne    4029be <rio_readlineb+0x9c>
  4029aa:	48 83 c4 18          	add    $0x18,%rsp
  4029ae:	5b                   	pop    %rbx
  4029af:	5d                   	pop    %rbp
  4029b0:	41 5c                	pop    %r12
  4029b2:	41 5d                	pop    %r13
  4029b4:	c3                   	retq   
  4029b5:	48 c7 c0 ff ff ff ff 	mov    $0xffffffffffffffff,%rax
  4029bc:	eb dc                	jmp    40299a <rio_readlineb+0x78>
  4029be:	e8 ed e8 ff ff       	callq  4012b0 <__stack_chk_fail@plt>

00000000004029c3 <urlencode>:
  4029c3:	41 54                	push   %r12
  4029c5:	55                   	push   %rbp
  4029c6:	53                   	push   %rbx
  4029c7:	48 83 ec 10          	sub    $0x10,%rsp
  4029cb:	48 89 fb             	mov    %rdi,%rbx
  4029ce:	48 89 f5             	mov    %rsi,%rbp
  4029d1:	64 48 8b 04 25 28 00 	mov    %fs:0x28,%rax
  4029d8:	00 00 
  4029da:	48 89 44 24 08       	mov    %rax,0x8(%rsp)
  4029df:	31 c0                	xor    %eax,%eax
  4029e1:	48 c7 c1 ff ff ff ff 	mov    $0xffffffffffffffff,%rcx
  4029e8:	f2 ae                	repnz scas %es:(%rdi),%al
  4029ea:	48 f7 d1             	not    %rcx
  4029ed:	8d 41 ff             	lea    -0x1(%rcx),%eax
  4029f0:	eb 0f                	jmp    402a01 <urlencode+0x3e>
  4029f2:	44 88 45 00          	mov    %r8b,0x0(%rbp)
  4029f6:	48 8d 6d 01          	lea    0x1(%rbp),%rbp
  4029fa:	48 83 c3 01          	add    $0x1,%rbx
  4029fe:	44 89 e0             	mov    %r12d,%eax
  402a01:	44 8d 60 ff          	lea    -0x1(%rax),%r12d
  402a05:	85 c0                	test   %eax,%eax
  402a07:	0f 84 a8 00 00 00    	je     402ab5 <urlencode+0xf2>
  402a0d:	44 0f b6 03          	movzbl (%rbx),%r8d
  402a11:	41 80 f8 2a          	cmp    $0x2a,%r8b
  402a15:	0f 94 c2             	sete   %dl
  402a18:	41 80 f8 2d          	cmp    $0x2d,%r8b
  402a1c:	0f 94 c0             	sete   %al
  402a1f:	08 c2                	or     %al,%dl
  402a21:	75 cf                	jne    4029f2 <urlencode+0x2f>
  402a23:	41 80 f8 2e          	cmp    $0x2e,%r8b
  402a27:	74 c9                	je     4029f2 <urlencode+0x2f>
  402a29:	41 80 f8 5f          	cmp    $0x5f,%r8b
  402a2d:	74 c3                	je     4029f2 <urlencode+0x2f>
  402a2f:	41 8d 40 d0          	lea    -0x30(%r8),%eax
  402a33:	3c 09                	cmp    $0x9,%al
  402a35:	76 bb                	jbe    4029f2 <urlencode+0x2f>
  402a37:	41 8d 40 bf          	lea    -0x41(%r8),%eax
  402a3b:	3c 19                	cmp    $0x19,%al
  402a3d:	76 b3                	jbe    4029f2 <urlencode+0x2f>
  402a3f:	41 8d 40 9f          	lea    -0x61(%r8),%eax
  402a43:	3c 19                	cmp    $0x19,%al
  402a45:	76 ab                	jbe    4029f2 <urlencode+0x2f>
  402a47:	41 80 f8 20          	cmp    $0x20,%r8b
  402a4b:	74 56                	je     402aa3 <urlencode+0xe0>
  402a4d:	41 8d 40 e0          	lea    -0x20(%r8),%eax
  402a51:	3c 5f                	cmp    $0x5f,%al
  402a53:	0f 96 c2             	setbe  %dl
  402a56:	41 80 f8 09          	cmp    $0x9,%r8b
  402a5a:	0f 94 c0             	sete   %al
  402a5d:	08 c2                	or     %al,%dl
  402a5f:	74 4f                	je     402ab0 <urlencode+0xed>
  402a61:	48 89 e7             	mov    %rsp,%rdi
  402a64:	45 0f b6 c0          	movzbl %r8b,%r8d
  402a68:	48 8d 0d 16 1d 00 00 	lea    0x1d16(%rip),%rcx        # 404785 <trans_char+0xa5>
  402a6f:	ba 08 00 00 00       	mov    $0x8,%edx
  402a74:	be 01 00 00 00       	mov    $0x1,%esi
  402a79:	b8 00 00 00 00       	mov    $0x0,%eax
  402a7e:	e8 ad e9 ff ff       	callq  401430 <__sprintf_chk@plt>
  402a83:	0f b6 04 24          	movzbl (%rsp),%eax
  402a87:	88 45 00             	mov    %al,0x0(%rbp)
  402a8a:	0f b6 44 24 01       	movzbl 0x1(%rsp),%eax
  402a8f:	88 45 01             	mov    %al,0x1(%rbp)
  402a92:	0f b6 44 24 02       	movzbl 0x2(%rsp),%eax
  402a97:	88 45 02             	mov    %al,0x2(%rbp)
  402a9a:	48 8d 6d 03          	lea    0x3(%rbp),%rbp
  402a9e:	e9 57 ff ff ff       	jmpq   4029fa <urlencode+0x37>
  402aa3:	c6 45 00 2b          	movb   $0x2b,0x0(%rbp)
  402aa7:	48 8d 6d 01          	lea    0x1(%rbp),%rbp
  402aab:	e9 4a ff ff ff       	jmpq   4029fa <urlencode+0x37>
  402ab0:	b8 ff ff ff ff       	mov    $0xffffffff,%eax
  402ab5:	48 8b 74 24 08       	mov    0x8(%rsp),%rsi
  402aba:	64 48 33 34 25 28 00 	xor    %fs:0x28,%rsi
  402ac1:	00 00 
  402ac3:	75 09                	jne    402ace <urlencode+0x10b>
  402ac5:	48 83 c4 10          	add    $0x10,%rsp
  402ac9:	5b                   	pop    %rbx
  402aca:	5d                   	pop    %rbp
  402acb:	41 5c                	pop    %r12
  402acd:	c3                   	retq   
  402ace:	e8 dd e7 ff ff       	callq  4012b0 <__stack_chk_fail@plt>

0000000000402ad3 <submitr>:
  402ad3:	41 57                	push   %r15
  402ad5:	41 56                	push   %r14
  402ad7:	41 55                	push   %r13
  402ad9:	41 54                	push   %r12
  402adb:	55                   	push   %rbp
  402adc:	53                   	push   %rbx
  402add:	4c 8d 9c 24 00 60 ff 	lea    -0xa000(%rsp),%r11
  402ae4:	ff 
  402ae5:	48 81 ec 00 10 00 00 	sub    $0x1000,%rsp
  402aec:	48 83 0c 24 00       	orq    $0x0,(%rsp)
  402af1:	4c 39 dc             	cmp    %r11,%rsp
  402af4:	75 ef                	jne    402ae5 <submitr+0x12>
  402af6:	48 83 ec 68          	sub    $0x68,%rsp
  402afa:	49 89 fc             	mov    %rdi,%r12
  402afd:	89 74 24 14          	mov    %esi,0x14(%rsp)
  402b01:	49 89 d6             	mov    %rdx,%r14
  402b04:	48 89 4c 24 08       	mov    %rcx,0x8(%rsp)
  402b09:	4c 89 44 24 18       	mov    %r8,0x18(%rsp)
  402b0e:	4d 89 cd             	mov    %r9,%r13
  402b11:	48 8b ac 24 a0 a0 00 	mov    0xa0a0(%rsp),%rbp
  402b18:	00 
  402b19:	64 48 8b 04 25 28 00 	mov    %fs:0x28,%rax
  402b20:	00 00 
  402b22:	48 89 84 24 58 a0 00 	mov    %rax,0xa058(%rsp)
  402b29:	00 
  402b2a:	31 c0                	xor    %eax,%eax
  402b2c:	c7 44 24 2c 00 00 00 	movl   $0x0,0x2c(%rsp)
  402b33:	00 
  402b34:	ba 00 00 00 00       	mov    $0x0,%edx
  402b39:	be 01 00 00 00       	mov    $0x1,%esi
  402b3e:	bf 02 00 00 00       	mov    $0x2,%edi
  402b43:	e8 f8 e8 ff ff       	callq  401440 <socket@plt>
  402b48:	85 c0                	test   %eax,%eax
  402b4a:	0f 88 a0 02 00 00    	js     402df0 <submitr+0x31d>
  402b50:	89 c3                	mov    %eax,%ebx
  402b52:	4c 89 e7             	mov    %r12,%rdi
  402b55:	e8 c6 e7 ff ff       	callq  401320 <gethostbyname@plt>
  402b5a:	48 85 c0             	test   %rax,%rax
  402b5d:	0f 84 d9 02 00 00    	je     402e3c <submitr+0x369>
  402b63:	4c 8d 7c 24 30       	lea    0x30(%rsp),%r15
  402b68:	48 c7 44 24 30 00 00 	movq   $0x0,0x30(%rsp)
  402b6f:	00 00 
  402b71:	48 c7 44 24 38 00 00 	movq   $0x0,0x38(%rsp)
  402b78:	00 00 
  402b7a:	66 c7 44 24 30 02 00 	movw   $0x2,0x30(%rsp)
  402b81:	48 63 50 14          	movslq 0x14(%rax),%rdx
  402b85:	48 8b 40 18          	mov    0x18(%rax),%rax
  402b89:	48 8b 30             	mov    (%rax),%rsi
  402b8c:	48 8d 7c 24 34       	lea    0x34(%rsp),%rdi
  402b91:	b9 0c 00 00 00       	mov    $0xc,%ecx
  402b96:	e8 95 e7 ff ff       	callq  401330 <__memmove_chk@plt>
  402b9b:	0f b7 74 24 14       	movzwl 0x14(%rsp),%esi
  402ba0:	66 c1 c6 08          	rol    $0x8,%si
  402ba4:	66 89 74 24 32       	mov    %si,0x32(%rsp)
  402ba9:	ba 10 00 00 00       	mov    $0x10,%edx
  402bae:	4c 89 fe             	mov    %r15,%rsi
  402bb1:	89 df                	mov    %ebx,%edi
  402bb3:	e8 48 e8 ff ff       	callq  401400 <connect@plt>
  402bb8:	85 c0                	test   %eax,%eax
  402bba:	0f 88 e4 02 00 00    	js     402ea4 <submitr+0x3d1>
  402bc0:	49 c7 c0 ff ff ff ff 	mov    $0xffffffffffffffff,%r8
  402bc7:	b8 00 00 00 00       	mov    $0x0,%eax
  402bcc:	4c 89 c1             	mov    %r8,%rcx
  402bcf:	4c 89 ef             	mov    %r13,%rdi
  402bd2:	f2 ae                	repnz scas %es:(%rdi),%al
  402bd4:	48 89 ca             	mov    %rcx,%rdx
  402bd7:	48 f7 d2             	not    %rdx
  402bda:	4c 89 c1             	mov    %r8,%rcx
  402bdd:	4c 89 f7             	mov    %r14,%rdi
  402be0:	f2 ae                	repnz scas %es:(%rdi),%al
  402be2:	48 f7 d1             	not    %rcx
  402be5:	48 89 ce             	mov    %rcx,%rsi
  402be8:	4c 89 c1             	mov    %r8,%rcx
  402beb:	48 8b 7c 24 08       	mov    0x8(%rsp),%rdi
  402bf0:	f2 ae                	repnz scas %es:(%rdi),%al
  402bf2:	48 f7 d1             	not    %rcx
  402bf5:	48 8d 74 0e fe       	lea    -0x2(%rsi,%rcx,1),%rsi
  402bfa:	4c 89 c1             	mov    %r8,%rcx
  402bfd:	48 8b 7c 24 18       	mov    0x18(%rsp),%rdi
  402c02:	f2 ae                	repnz scas %es:(%rdi),%al
  402c04:	48 89 c8             	mov    %rcx,%rax
  402c07:	48 f7 d0             	not    %rax
  402c0a:	48 8d 4c 06 ff       	lea    -0x1(%rsi,%rax,1),%rcx
  402c0f:	48 8d 44 52 fd       	lea    -0x3(%rdx,%rdx,2),%rax
  402c14:	48 8d 84 01 80 00 00 	lea    0x80(%rcx,%rax,1),%rax
  402c1b:	00 
  402c1c:	48 3d 00 20 00 00    	cmp    $0x2000,%rax
  402c22:	0f 87 d6 02 00 00    	ja     402efe <submitr+0x42b>
  402c28:	48 8d b4 24 50 40 00 	lea    0x4050(%rsp),%rsi
  402c2f:	00 
  402c30:	b9 00 04 00 00       	mov    $0x400,%ecx
  402c35:	b8 00 00 00 00       	mov    $0x0,%eax
  402c3a:	48 89 f7             	mov    %rsi,%rdi
  402c3d:	f3 48 ab             	rep stos %rax,%es:(%rdi)
  402c40:	4c 89 ef             	mov    %r13,%rdi
  402c43:	e8 7b fd ff ff       	callq  4029c3 <urlencode>
  402c48:	85 c0                	test   %eax,%eax
  402c4a:	0f 88 21 03 00 00    	js     402f71 <submitr+0x49e>
  402c50:	4c 8d bc 24 50 20 00 	lea    0x2050(%rsp),%r15
  402c57:	00 
  402c58:	41 54                	push   %r12
  402c5a:	48 8d 84 24 58 40 00 	lea    0x4058(%rsp),%rax
  402c61:	00 
  402c62:	50                   	push   %rax
  402c63:	4d 89 f1             	mov    %r14,%r9
  402c66:	4c 8b 44 24 18       	mov    0x18(%rsp),%r8
  402c6b:	48 8d 0d a6 1a 00 00 	lea    0x1aa6(%rip),%rcx        # 404718 <trans_char+0x38>
  402c72:	ba 00 20 00 00       	mov    $0x2000,%edx
  402c77:	be 01 00 00 00       	mov    $0x1,%esi
  402c7c:	4c 89 ff             	mov    %r15,%rdi
  402c7f:	b8 00 00 00 00       	mov    $0x0,%eax
  402c84:	e8 a7 e7 ff ff       	callq  401430 <__sprintf_chk@plt>
  402c89:	48 c7 c1 ff ff ff ff 	mov    $0xffffffffffffffff,%rcx
  402c90:	b8 00 00 00 00       	mov    $0x0,%eax
  402c95:	4c 89 ff             	mov    %r15,%rdi
  402c98:	f2 ae                	repnz scas %es:(%rdi),%al
  402c9a:	48 f7 d1             	not    %rcx
  402c9d:	48 8d 51 ff          	lea    -0x1(%rcx),%rdx
  402ca1:	4c 89 fe             	mov    %r15,%rsi
  402ca4:	89 df                	mov    %ebx,%edi
  402ca6:	e8 92 fb ff ff       	callq  40283d <rio_writen>
  402cab:	48 83 c4 10          	add    $0x10,%rsp
  402caf:	48 85 c0             	test   %rax,%rax
  402cb2:	0f 88 44 03 00 00    	js     402ffc <submitr+0x529>
  402cb8:	4c 8d 64 24 40       	lea    0x40(%rsp),%r12
  402cbd:	89 de                	mov    %ebx,%esi
  402cbf:	4c 89 e7             	mov    %r12,%rdi
  402cc2:	e8 32 fb ff ff       	callq  4027f9 <rio_readinitb>
  402cc7:	48 8d b4 24 50 20 00 	lea    0x2050(%rsp),%rsi
  402cce:	00 
  402ccf:	ba 00 20 00 00       	mov    $0x2000,%edx
  402cd4:	4c 89 e7             	mov    %r12,%rdi
  402cd7:	e8 46 fc ff ff       	callq  402922 <rio_readlineb>
  402cdc:	48 85 c0             	test   %rax,%rax
  402cdf:	0f 8e 86 03 00 00    	jle    40306b <submitr+0x598>
  402ce5:	48 8d 4c 24 2c       	lea    0x2c(%rsp),%rcx
  402cea:	48 8d 94 24 50 60 00 	lea    0x6050(%rsp),%rdx
  402cf1:	00 
  402cf2:	48 8d bc 24 50 20 00 	lea    0x2050(%rsp),%rdi
  402cf9:	00 
  402cfa:	4c 8d 84 24 50 80 00 	lea    0x8050(%rsp),%r8
  402d01:	00 
  402d02:	48 8d 35 83 1a 00 00 	lea    0x1a83(%rip),%rsi        # 40478c <trans_char+0xac>
  402d09:	b8 00 00 00 00       	mov    $0x0,%eax
  402d0e:	e8 6d e6 ff ff       	callq  401380 <__isoc99_sscanf@plt>
  402d13:	48 8d b4 24 50 20 00 	lea    0x2050(%rsp),%rsi
  402d1a:	00 
  402d1b:	b9 03 00 00 00       	mov    $0x3,%ecx
  402d20:	48 8d 3d 7c 1a 00 00 	lea    0x1a7c(%rip),%rdi        # 4047a3 <trans_char+0xc3>
  402d27:	f3 a6                	repz cmpsb %es:(%rdi),%ds:(%rsi)
  402d29:	0f 97 c0             	seta   %al
  402d2c:	1c 00                	sbb    $0x0,%al
  402d2e:	84 c0                	test   %al,%al
  402d30:	0f 84 b3 03 00 00    	je     4030e9 <submitr+0x616>
  402d36:	48 8d b4 24 50 20 00 	lea    0x2050(%rsp),%rsi
  402d3d:	00 
  402d3e:	48 8d 7c 24 40       	lea    0x40(%rsp),%rdi
  402d43:	ba 00 20 00 00       	mov    $0x2000,%edx
  402d48:	e8 d5 fb ff ff       	callq  402922 <rio_readlineb>
  402d4d:	48 85 c0             	test   %rax,%rax
  402d50:	7f c1                	jg     402d13 <submitr+0x240>
  402d52:	48 b8 45 72 72 6f 72 	movabs $0x43203a726f727245,%rax
  402d59:	3a 20 43 
  402d5c:	48 ba 6c 69 65 6e 74 	movabs $0x6e7520746e65696c,%rdx
  402d63:	20 75 6e 
  402d66:	48 89 45 00          	mov    %rax,0x0(%rbp)
  402d6a:	48 89 55 08          	mov    %rdx,0x8(%rbp)
  402d6e:	48 b8 61 62 6c 65 20 	movabs $0x206f7420656c6261,%rax
  402d75:	74 6f 20 
  402d78:	48 ba 72 65 61 64 20 	movabs $0x6165682064616572,%rdx
  402d7f:	68 65 61 
  402d82:	48 89 45 10          	mov    %rax,0x10(%rbp)
  402d86:	48 89 55 18          	mov    %rdx,0x18(%rbp)
  402d8a:	48 b8 64 65 72 73 20 	movabs $0x6f72662073726564,%rax
  402d91:	66 72 6f 
  402d94:	48 ba 6d 20 74 68 65 	movabs $0x657220656874206d,%rdx
  402d9b:	20 72 65 
  402d9e:	48 89 45 20          	mov    %rax,0x20(%rbp)
  402da2:	48 89 55 28          	mov    %rdx,0x28(%rbp)
  402da6:	48 b8 73 75 6c 74 20 	movabs $0x72657320746c7573,%rax
  402dad:	73 65 72 
  402db0:	48 89 45 30          	mov    %rax,0x30(%rbp)
  402db4:	c7 45 38 76 65 72 00 	movl   $0x726576,0x38(%rbp)
  402dbb:	89 df                	mov    %ebx,%edi
  402dbd:	e8 2e e5 ff ff       	callq  4012f0 <close@plt>
  402dc2:	b8 ff ff ff ff       	mov    $0xffffffff,%eax
  402dc7:	48 8b 9c 24 58 a0 00 	mov    0xa058(%rsp),%rbx
  402dce:	00 
  402dcf:	64 48 33 1c 25 28 00 	xor    %fs:0x28,%rbx
  402dd6:	00 00 
  402dd8:	0f 85 7e 04 00 00    	jne    40325c <submitr+0x789>
  402dde:	48 81 c4 68 a0 00 00 	add    $0xa068,%rsp
  402de5:	5b                   	pop    %rbx
  402de6:	5d                   	pop    %rbp
  402de7:	41 5c                	pop    %r12
  402de9:	41 5d                	pop    %r13
  402deb:	41 5e                	pop    %r14
  402ded:	41 5f                	pop    %r15
  402def:	c3                   	retq   
  402df0:	48 b8 45 72 72 6f 72 	movabs $0x43203a726f727245,%rax
  402df7:	3a 20 43 
  402dfa:	48 ba 6c 69 65 6e 74 	movabs $0x6e7520746e65696c,%rdx
  402e01:	20 75 6e 
  402e04:	48 89 45 00          	mov    %rax,0x0(%rbp)
  402e08:	48 89 55 08          	mov    %rdx,0x8(%rbp)
  402e0c:	48 b8 61 62 6c 65 20 	movabs $0x206f7420656c6261,%rax
  402e13:	74 6f 20 
  402e16:	48 ba 63 72 65 61 74 	movabs $0x7320657461657263,%rdx
  402e1d:	65 20 73 
  402e20:	48 89 45 10          	mov    %rax,0x10(%rbp)
  402e24:	48 89 55 18          	mov    %rdx,0x18(%rbp)
  402e28:	c7 45 20 6f 63 6b 65 	movl   $0x656b636f,0x20(%rbp)
  402e2f:	66 c7 45 24 74 00    	movw   $0x74,0x24(%rbp)
  402e35:	b8 ff ff ff ff       	mov    $0xffffffff,%eax
  402e3a:	eb 8b                	jmp    402dc7 <submitr+0x2f4>
  402e3c:	48 b8 45 72 72 6f 72 	movabs $0x44203a726f727245,%rax
  402e43:	3a 20 44 
  402e46:	48 ba 4e 53 20 69 73 	movabs $0x6e7520736920534e,%rdx
  402e4d:	20 75 6e 
  402e50:	48 89 45 00          	mov    %rax,0x0(%rbp)
  402e54:	48 89 55 08          	mov    %rdx,0x8(%rbp)
  402e58:	48 b8 61 62 6c 65 20 	movabs $0x206f7420656c6261,%rax
  402e5f:	74 6f 20 
  402e62:	48 ba 72 65 73 6f 6c 	movabs $0x2065766c6f736572,%rdx
  402e69:	76 65 20 
  402e6c:	48 89 45 10          	mov    %rax,0x10(%rbp)
  402e70:	48 89 55 18          	mov    %rdx,0x18(%rbp)
  402e74:	48 b8 73 65 72 76 65 	movabs $0x6120726576726573,%rax
  402e7b:	72 20 61 
  402e7e:	48 89 45 20          	mov    %rax,0x20(%rbp)
  402e82:	c7 45 28 64 64 72 65 	movl   $0x65726464,0x28(%rbp)
  402e89:	66 c7 45 2c 73 73    	movw   $0x7373,0x2c(%rbp)
  402e8f:	c6 45 2e 00          	movb   $0x0,0x2e(%rbp)
  402e93:	89 df                	mov    %ebx,%edi
  402e95:	e8 56 e4 ff ff       	callq  4012f0 <close@plt>
  402e9a:	b8 ff ff ff ff       	mov    $0xffffffff,%eax
  402e9f:	e9 23 ff ff ff       	jmpq   402dc7 <submitr+0x2f4>
  402ea4:	48 b8 45 72 72 6f 72 	movabs $0x55203a726f727245,%rax
  402eab:	3a 20 55 
  402eae:	48 ba 6e 61 62 6c 65 	movabs $0x6f7420656c62616e,%rdx
  402eb5:	20 74 6f 
  402eb8:	48 89 45 00          	mov    %rax,0x0(%rbp)
  402ebc:	48 89 55 08          	mov    %rdx,0x8(%rbp)
  402ec0:	48 b8 20 63 6f 6e 6e 	movabs $0x7463656e6e6f6320,%rax
  402ec7:	65 63 74 
  402eca:	48 ba 20 74 6f 20 74 	movabs $0x20656874206f7420,%rdx
  402ed1:	68 65 20 
  402ed4:	48 89 45 10          	mov    %rax,0x10(%rbp)
  402ed8:	48 89 55 18          	mov    %rdx,0x18(%rbp)
  402edc:	c7 45 20 73 65 72 76 	movl   $0x76726573,0x20(%rbp)
  402ee3:	66 c7 45 24 65 72    	movw   $0x7265,0x24(%rbp)
  402ee9:	c6 45 26 00          	movb   $0x0,0x26(%rbp)
  402eed:	89 df                	mov    %ebx,%edi
  402eef:	e8 fc e3 ff ff       	callq  4012f0 <close@plt>
  402ef4:	b8 ff ff ff ff       	mov    $0xffffffff,%eax
  402ef9:	e9 c9 fe ff ff       	jmpq   402dc7 <submitr+0x2f4>
  402efe:	48 b8 45 72 72 6f 72 	movabs $0x52203a726f727245,%rax
  402f05:	3a 20 52 
  402f08:	48 ba 65 73 75 6c 74 	movabs $0x747320746c757365,%rdx
  402f0f:	20 73 74 
  402f12:	48 89 45 00          	mov    %rax,0x0(%rbp)
  402f16:	48 89 55 08          	mov    %rdx,0x8(%rbp)
  402f1a:	48 b8 72 69 6e 67 20 	movabs $0x6f6f7420676e6972,%rax
  402f21:	74 6f 6f 
  402f24:	48 ba 20 6c 61 72 67 	movabs $0x202e656772616c20,%rdx
  402f2b:	65 2e 20 
  402f2e:	48 89 45 10          	mov    %rax,0x10(%rbp)
  402f32:	48 89 55 18          	mov    %rdx,0x18(%rbp)
  402f36:	48 b8 49 6e 63 72 65 	movabs $0x6573616572636e49,%rax
  402f3d:	61 73 65 
  402f40:	48 ba 20 53 55 42 4d 	movabs $0x5254494d42555320,%rdx
  402f47:	49 54 52 
  402f4a:	48 89 45 20          	mov    %rax,0x20(%rbp)
  402f4e:	48 89 55 28          	mov    %rdx,0x28(%rbp)
  402f52:	48 b8 5f 4d 41 58 42 	movabs $0x46554258414d5f,%rax
  402f59:	55 46 00 
  402f5c:	48 89 45 30          	mov    %rax,0x30(%rbp)
  402f60:	89 df                	mov    %ebx,%edi
  402f62:	e8 89 e3 ff ff       	callq  4012f0 <close@plt>
  402f67:	b8 ff ff ff ff       	mov    $0xffffffff,%eax
  402f6c:	e9 56 fe ff ff       	jmpq   402dc7 <submitr+0x2f4>
  402f71:	48 b8 45 72 72 6f 72 	movabs $0x52203a726f727245,%rax
  402f78:	3a 20 52 
  402f7b:	48 ba 65 73 75 6c 74 	movabs $0x747320746c757365,%rdx
  402f82:	20 73 74 
  402f85:	48 89 45 00          	mov    %rax,0x0(%rbp)
  402f89:	48 89 55 08          	mov    %rdx,0x8(%rbp)
  402f8d:	48 b8 72 69 6e 67 20 	movabs $0x6e6f6320676e6972,%rax
  402f94:	63 6f 6e 
  402f97:	48 ba 74 61 69 6e 73 	movabs $0x6e6120736e696174,%rdx
  402f9e:	20 61 6e 
  402fa1:	48 89 45 10          	mov    %rax,0x10(%rbp)
  402fa5:	48 89 55 18          	mov    %rdx,0x18(%rbp)
  402fa9:	48 b8 20 69 6c 6c 65 	movabs $0x6c6167656c6c6920,%rax
  402fb0:	67 61 6c 
  402fb3:	48 ba 20 6f 72 20 75 	movabs $0x72706e7520726f20,%rdx
  402fba:	6e 70 72 
  402fbd:	48 89 45 20          	mov    %rax,0x20(%rbp)
  402fc1:	48 89 55 28          	mov    %rdx,0x28(%rbp)
  402fc5:	48 b8 69 6e 74 61 62 	movabs $0x20656c6261746e69,%rax
  402fcc:	6c 65 20 
  402fcf:	48 ba 63 68 61 72 61 	movabs $0x6574636172616863,%rdx
  402fd6:	63 74 65 
  402fd9:	48 89 45 30          	mov    %rax,0x30(%rbp)
  402fdd:	48 89 55 38          	mov    %rdx,0x38(%rbp)
  402fe1:	66 c7 45 40 72 2e    	movw   $0x2e72,0x40(%rbp)
  402fe7:	c6 45 42 00          	movb   $0x0,0x42(%rbp)
  402feb:	89 df                	mov    %ebx,%edi
  402fed:	e8 fe e2 ff ff       	callq  4012f0 <close@plt>
  402ff2:	b8 ff ff ff ff       	mov    $0xffffffff,%eax
  402ff7:	e9 cb fd ff ff       	jmpq   402dc7 <submitr+0x2f4>
  402ffc:	48 b8 45 72 72 6f 72 	movabs $0x43203a726f727245,%rax
  403003:	3a 20 43 
  403006:	48 ba 6c 69 65 6e 74 	movabs $0x6e7520746e65696c,%rdx
  40300d:	20 75 6e 
  403010:	48 89 45 00          	mov    %rax,0x0(%rbp)
  403014:	48 89 55 08          	mov    %rdx,0x8(%rbp)
  403018:	48 b8 61 62 6c 65 20 	movabs $0x206f7420656c6261,%rax
  40301f:	74 6f 20 
  403022:	48 ba 77 72 69 74 65 	movabs $0x6f74206574697277,%rdx
  403029:	20 74 6f 
  40302c:	48 89 45 10          	mov    %rax,0x10(%rbp)
  403030:	48 89 55 18          	mov    %rdx,0x18(%rbp)
  403034:	48 b8 20 74 68 65 20 	movabs $0x7365722065687420,%rax
  40303b:	72 65 73 
  40303e:	48 ba 75 6c 74 20 73 	movabs $0x7672657320746c75,%rdx
  403045:	65 72 76 
  403048:	48 89 45 20          	mov    %rax,0x20(%rbp)
  40304c:	48 89 55 28          	mov    %rdx,0x28(%rbp)
  403050:	66 c7 45 30 65 72    	movw   $0x7265,0x30(%rbp)
  403056:	c6 45 32 00          	movb   $0x0,0x32(%rbp)
  40305a:	89 df                	mov    %ebx,%edi
  40305c:	e8 8f e2 ff ff       	callq  4012f0 <close@plt>
  403061:	b8 ff ff ff ff       	mov    $0xffffffff,%eax
  403066:	e9 5c fd ff ff       	jmpq   402dc7 <submitr+0x2f4>
  40306b:	48 b8 45 72 72 6f 72 	movabs $0x43203a726f727245,%rax
  403072:	3a 20 43 
  403075:	48 ba 6c 69 65 6e 74 	movabs $0x6e7520746e65696c,%rdx
  40307c:	20 75 6e 
  40307f:	48 89 45 00          	mov    %rax,0x0(%rbp)
  403083:	48 89 55 08          	mov    %rdx,0x8(%rbp)
  403087:	48 b8 61 62 6c 65 20 	movabs $0x206f7420656c6261,%rax
  40308e:	74 6f 20 
  403091:	48 ba 72 65 61 64 20 	movabs $0x7269662064616572,%rdx
  403098:	66 69 72 
  40309b:	48 89 45 10          	mov    %rax,0x10(%rbp)
  40309f:	48 89 55 18          	mov    %rdx,0x18(%rbp)
  4030a3:	48 b8 73 74 20 68 65 	movabs $0x6564616568207473,%rax
  4030aa:	61 64 65 
  4030ad:	48 ba 72 20 66 72 6f 	movabs $0x72206d6f72662072,%rdx
  4030b4:	6d 20 72 
  4030b7:	48 89 45 20          	mov    %rax,0x20(%rbp)
  4030bb:	48 89 55 28          	mov    %rdx,0x28(%rbp)
  4030bf:	48 b8 65 73 75 6c 74 	movabs $0x657320746c757365,%rax
  4030c6:	20 73 65 
  4030c9:	48 89 45 30          	mov    %rax,0x30(%rbp)
  4030cd:	c7 45 38 72 76 65 72 	movl   $0x72657672,0x38(%rbp)
  4030d4:	c6 45 3c 00          	movb   $0x0,0x3c(%rbp)
  4030d8:	89 df                	mov    %ebx,%edi
  4030da:	e8 11 e2 ff ff       	callq  4012f0 <close@plt>
  4030df:	b8 ff ff ff ff       	mov    $0xffffffff,%eax
  4030e4:	e9 de fc ff ff       	jmpq   402dc7 <submitr+0x2f4>
  4030e9:	48 8d b4 24 50 20 00 	lea    0x2050(%rsp),%rsi
  4030f0:	00 
  4030f1:	48 8d 7c 24 40       	lea    0x40(%rsp),%rdi
  4030f6:	ba 00 20 00 00       	mov    $0x2000,%edx
  4030fb:	e8 22 f8 ff ff       	callq  402922 <rio_readlineb>
  403100:	48 85 c0             	test   %rax,%rax
  403103:	0f 8e 96 00 00 00    	jle    40319f <submitr+0x6cc>
  403109:	44 8b 44 24 2c       	mov    0x2c(%rsp),%r8d
  40310e:	41 81 f8 c8 00 00 00 	cmp    $0xc8,%r8d
  403115:	0f 85 08 01 00 00    	jne    403223 <submitr+0x750>
  40311b:	48 8d b4 24 50 20 00 	lea    0x2050(%rsp),%rsi
  403122:	00 
  403123:	48 89 ef             	mov    %rbp,%rdi
  403126:	e8 55 e1 ff ff       	callq  401280 <strcpy@plt>
  40312b:	89 df                	mov    %ebx,%edi
  40312d:	e8 be e1 ff ff       	callq  4012f0 <close@plt>
  403132:	b9 04 00 00 00       	mov    $0x4,%ecx
  403137:	48 8d 3d 5f 16 00 00 	lea    0x165f(%rip),%rdi        # 40479d <trans_char+0xbd>
  40313e:	48 89 ee             	mov    %rbp,%rsi
  403141:	f3 a6                	repz cmpsb %es:(%rdi),%ds:(%rsi)
  403143:	0f 97 c0             	seta   %al
  403146:	1c 00                	sbb    $0x0,%al
  403148:	0f be c0             	movsbl %al,%eax
  40314b:	85 c0                	test   %eax,%eax
  40314d:	0f 84 74 fc ff ff    	je     402dc7 <submitr+0x2f4>
  403153:	b9 05 00 00 00       	mov    $0x5,%ecx
  403158:	48 8d 3d 42 16 00 00 	lea    0x1642(%rip),%rdi        # 4047a1 <trans_char+0xc1>
  40315f:	48 89 ee             	mov    %rbp,%rsi
  403162:	f3 a6                	repz cmpsb %es:(%rdi),%ds:(%rsi)
  403164:	0f 97 c0             	seta   %al
  403167:	1c 00                	sbb    $0x0,%al
  403169:	0f be c0             	movsbl %al,%eax
  40316c:	85 c0                	test   %eax,%eax
  40316e:	0f 84 53 fc ff ff    	je     402dc7 <submitr+0x2f4>
  403174:	b9 03 00 00 00       	mov    $0x3,%ecx
  403179:	48 8d 3d 26 16 00 00 	lea    0x1626(%rip),%rdi        # 4047a6 <trans_char+0xc6>
  403180:	48 89 ee             	mov    %rbp,%rsi
  403183:	f3 a6                	repz cmpsb %es:(%rdi),%ds:(%rsi)
  403185:	0f 97 c0             	seta   %al
  403188:	1c 00                	sbb    $0x0,%al
  40318a:	0f be c0             	movsbl %al,%eax
  40318d:	85 c0                	test   %eax,%eax
  40318f:	0f 84 32 fc ff ff    	je     402dc7 <submitr+0x2f4>
  403195:	b8 ff ff ff ff       	mov    $0xffffffff,%eax
  40319a:	e9 28 fc ff ff       	jmpq   402dc7 <submitr+0x2f4>
  40319f:	48 b8 45 72 72 6f 72 	movabs $0x43203a726f727245,%rax
  4031a6:	3a 20 43 
  4031a9:	48 ba 6c 69 65 6e 74 	movabs $0x6e7520746e65696c,%rdx
  4031b0:	20 75 6e 
  4031b3:	48 89 45 00          	mov    %rax,0x0(%rbp)
  4031b7:	48 89 55 08          	mov    %rdx,0x8(%rbp)
  4031bb:	48 b8 61 62 6c 65 20 	movabs $0x206f7420656c6261,%rax
  4031c2:	74 6f 20 
  4031c5:	48 ba 72 65 61 64 20 	movabs $0x6174732064616572,%rdx
  4031cc:	73 74 61 
  4031cf:	48 89 45 10          	mov    %rax,0x10(%rbp)
  4031d3:	48 89 55 18          	mov    %rdx,0x18(%rbp)
  4031d7:	48 b8 74 75 73 20 6d 	movabs $0x7373656d20737574,%rax
  4031de:	65 73 73 
  4031e1:	48 ba 61 67 65 20 66 	movabs $0x6d6f726620656761,%rdx
  4031e8:	72 6f 6d 
  4031eb:	48 89 45 20          	mov    %rax,0x20(%rbp)
  4031ef:	48 89 55 28          	mov    %rdx,0x28(%rbp)
  4031f3:	48 b8 20 72 65 73 75 	movabs $0x20746c7573657220,%rax
  4031fa:	6c 74 20 
  4031fd:	48 89 45 30          	mov    %rax,0x30(%rbp)
  403201:	c7 45 38 73 65 72 76 	movl   $0x76726573,0x38(%rbp)
  403208:	66 c7 45 3c 65 72    	movw   $0x7265,0x3c(%rbp)
  40320e:	c6 45 3e 00          	movb   $0x0,0x3e(%rbp)
  403212:	89 df                	mov    %ebx,%edi
  403214:	e8 d7 e0 ff ff       	callq  4012f0 <close@plt>
  403219:	b8 ff ff ff ff       	mov    $0xffffffff,%eax
  40321e:	e9 a4 fb ff ff       	jmpq   402dc7 <submitr+0x2f4>
  403223:	4c 8d 8c 24 50 80 00 	lea    0x8050(%rsp),%r9
  40322a:	00 
  40322b:	48 8d 0d 26 15 00 00 	lea    0x1526(%rip),%rcx        # 404758 <trans_char+0x78>
  403232:	48 c7 c2 ff ff ff ff 	mov    $0xffffffffffffffff,%rdx
  403239:	be 01 00 00 00       	mov    $0x1,%esi
  40323e:	48 89 ef             	mov    %rbp,%rdi
  403241:	b8 00 00 00 00       	mov    $0x0,%eax
  403246:	e8 e5 e1 ff ff       	callq  401430 <__sprintf_chk@plt>
  40324b:	89 df                	mov    %ebx,%edi
  40324d:	e8 9e e0 ff ff       	callq  4012f0 <close@plt>
  403252:	b8 ff ff ff ff       	mov    $0xffffffff,%eax
  403257:	e9 6b fb ff ff       	jmpq   402dc7 <submitr+0x2f4>
  40325c:	e8 4f e0 ff ff       	callq  4012b0 <__stack_chk_fail@plt>

0000000000403261 <init_timeout>:
  403261:	85 ff                	test   %edi,%edi
  403263:	74 26                	je     40328b <init_timeout+0x2a>
  403265:	53                   	push   %rbx
  403266:	89 fb                	mov    %edi,%ebx
  403268:	78 1a                	js     403284 <init_timeout+0x23>
  40326a:	48 8d 35 9a f5 ff ff 	lea    -0xa66(%rip),%rsi        # 40280b <sigalrm_handler>
  403271:	bf 0e 00 00 00       	mov    $0xe,%edi
  403276:	e8 95 e0 ff ff       	callq  401310 <signal@plt>
  40327b:	89 df                	mov    %ebx,%edi
  40327d:	e8 5e e0 ff ff       	callq  4012e0 <alarm@plt>
  403282:	5b                   	pop    %rbx
  403283:	c3                   	retq   
  403284:	bb 00 00 00 00       	mov    $0x0,%ebx
  403289:	eb df                	jmp    40326a <init_timeout+0x9>
  40328b:	c3                   	retq   

000000000040328c <init_driver>:
  40328c:	41 54                	push   %r12
  40328e:	55                   	push   %rbp
  40328f:	53                   	push   %rbx
  403290:	48 83 ec 20          	sub    $0x20,%rsp
  403294:	48 89 fd             	mov    %rdi,%rbp
  403297:	64 48 8b 04 25 28 00 	mov    %fs:0x28,%rax
  40329e:	00 00 
  4032a0:	48 89 44 24 18       	mov    %rax,0x18(%rsp)
  4032a5:	31 c0                	xor    %eax,%eax
  4032a7:	be 01 00 00 00       	mov    $0x1,%esi
  4032ac:	bf 0d 00 00 00       	mov    $0xd,%edi
  4032b1:	e8 5a e0 ff ff       	callq  401310 <signal@plt>
  4032b6:	be 01 00 00 00       	mov    $0x1,%esi
  4032bb:	bf 1d 00 00 00       	mov    $0x1d,%edi
  4032c0:	e8 4b e0 ff ff       	callq  401310 <signal@plt>
  4032c5:	be 01 00 00 00       	mov    $0x1,%esi
  4032ca:	bf 1d 00 00 00       	mov    $0x1d,%edi
  4032cf:	e8 3c e0 ff ff       	callq  401310 <signal@plt>
  4032d4:	ba 00 00 00 00       	mov    $0x0,%edx
  4032d9:	be 01 00 00 00       	mov    $0x1,%esi
  4032de:	bf 02 00 00 00       	mov    $0x2,%edi
  4032e3:	e8 58 e1 ff ff       	callq  401440 <socket@plt>
  4032e8:	85 c0                	test   %eax,%eax
  4032ea:	0f 88 9c 00 00 00    	js     40338c <init_driver+0x100>
  4032f0:	89 c3                	mov    %eax,%ebx
  4032f2:	48 8d 3d eb 0f 00 00 	lea    0xfeb(%rip),%rdi        # 4042e4 <_IO_stdin_used+0x2e4>
  4032f9:	e8 22 e0 ff ff       	callq  401320 <gethostbyname@plt>
  4032fe:	48 85 c0             	test   %rax,%rax
  403301:	0f 84 d1 00 00 00    	je     4033d8 <init_driver+0x14c>
  403307:	49 89 e4             	mov    %rsp,%r12
  40330a:	48 c7 04 24 00 00 00 	movq   $0x0,(%rsp)
  403311:	00 
  403312:	48 c7 44 24 08 00 00 	movq   $0x0,0x8(%rsp)
  403319:	00 00 
  40331b:	66 c7 04 24 02 00    	movw   $0x2,(%rsp)
  403321:	48 63 50 14          	movslq 0x14(%rax),%rdx
  403325:	48 8b 40 18          	mov    0x18(%rax),%rax
  403329:	48 8b 30             	mov    (%rax),%rsi
  40332c:	48 8d 7c 24 04       	lea    0x4(%rsp),%rdi
  403331:	b9 0c 00 00 00       	mov    $0xc,%ecx
  403336:	e8 f5 df ff ff       	callq  401330 <__memmove_chk@plt>
  40333b:	66 c7 44 24 02 1f 96 	movw   $0x961f,0x2(%rsp)
  403342:	ba 10 00 00 00       	mov    $0x10,%edx
  403347:	4c 89 e6             	mov    %r12,%rsi
  40334a:	89 df                	mov    %ebx,%edi
  40334c:	e8 af e0 ff ff       	callq  401400 <connect@plt>
  403351:	85 c0                	test   %eax,%eax
  403353:	0f 88 e7 00 00 00    	js     403440 <init_driver+0x1b4>
  403359:	89 df                	mov    %ebx,%edi
  40335b:	e8 90 df ff ff       	callq  4012f0 <close@plt>
  403360:	66 c7 45 00 4f 4b    	movw   $0x4b4f,0x0(%rbp)
  403366:	c6 45 02 00          	movb   $0x0,0x2(%rbp)
  40336a:	b8 00 00 00 00       	mov    $0x0,%eax
  40336f:	48 8b 4c 24 18       	mov    0x18(%rsp),%rcx
  403374:	64 48 33 0c 25 28 00 	xor    %fs:0x28,%rcx
  40337b:	00 00 
  40337d:	0f 85 10 01 00 00    	jne    403493 <init_driver+0x207>
  403383:	48 83 c4 20          	add    $0x20,%rsp
  403387:	5b                   	pop    %rbx
  403388:	5d                   	pop    %rbp
  403389:	41 5c                	pop    %r12
  40338b:	c3                   	retq   
  40338c:	48 b8 45 72 72 6f 72 	movabs $0x43203a726f727245,%rax
  403393:	3a 20 43 
  403396:	48 ba 6c 69 65 6e 74 	movabs $0x6e7520746e65696c,%rdx
  40339d:	20 75 6e 
  4033a0:	48 89 45 00          	mov    %rax,0x0(%rbp)
  4033a4:	48 89 55 08          	mov    %rdx,0x8(%rbp)
  4033a8:	48 b8 61 62 6c 65 20 	movabs $0x206f7420656c6261,%rax
  4033af:	74 6f 20 
  4033b2:	48 ba 63 72 65 61 74 	movabs $0x7320657461657263,%rdx
  4033b9:	65 20 73 
  4033bc:	48 89 45 10          	mov    %rax,0x10(%rbp)
  4033c0:	48 89 55 18          	mov    %rdx,0x18(%rbp)
  4033c4:	c7 45 20 6f 63 6b 65 	movl   $0x656b636f,0x20(%rbp)
  4033cb:	66 c7 45 24 74 00    	movw   $0x74,0x24(%rbp)
  4033d1:	b8 ff ff ff ff       	mov    $0xffffffff,%eax
  4033d6:	eb 97                	jmp    40336f <init_driver+0xe3>
  4033d8:	48 b8 45 72 72 6f 72 	movabs $0x44203a726f727245,%rax
  4033df:	3a 20 44 
  4033e2:	48 ba 4e 53 20 69 73 	movabs $0x6e7520736920534e,%rdx
  4033e9:	20 75 6e 
  4033ec:	48 89 45 00          	mov    %rax,0x0(%rbp)
  4033f0:	48 89 55 08          	mov    %rdx,0x8(%rbp)
  4033f4:	48 b8 61 62 6c 65 20 	movabs $0x206f7420656c6261,%rax
  4033fb:	74 6f 20 
  4033fe:	48 ba 72 65 73 6f 6c 	movabs $0x2065766c6f736572,%rdx
  403405:	76 65 20 
  403408:	48 89 45 10          	mov    %rax,0x10(%rbp)
  40340c:	48 89 55 18          	mov    %rdx,0x18(%rbp)
  403410:	48 b8 73 65 72 76 65 	movabs $0x6120726576726573,%rax
  403417:	72 20 61 
  40341a:	48 89 45 20          	mov    %rax,0x20(%rbp)
  40341e:	c7 45 28 64 64 72 65 	movl   $0x65726464,0x28(%rbp)
  403425:	66 c7 45 2c 73 73    	movw   $0x7373,0x2c(%rbp)
  40342b:	c6 45 2e 00          	movb   $0x0,0x2e(%rbp)
  40342f:	89 df                	mov    %ebx,%edi
  403431:	e8 ba de ff ff       	callq  4012f0 <close@plt>
  403436:	b8 ff ff ff ff       	mov    $0xffffffff,%eax
  40343b:	e9 2f ff ff ff       	jmpq   40336f <init_driver+0xe3>
  403440:	48 b8 45 72 72 6f 72 	movabs $0x55203a726f727245,%rax
  403447:	3a 20 55 
  40344a:	48 ba 6e 61 62 6c 65 	movabs $0x6f7420656c62616e,%rdx
  403451:	20 74 6f 
  403454:	48 89 45 00          	mov    %rax,0x0(%rbp)
  403458:	48 89 55 08          	mov    %rdx,0x8(%rbp)
  40345c:	48 b8 20 63 6f 6e 6e 	movabs $0x7463656e6e6f6320,%rax
  403463:	65 63 74 
  403466:	48 ba 20 74 6f 20 73 	movabs $0x76726573206f7420,%rdx
  40346d:	65 72 76 
  403470:	48 89 45 10          	mov    %rax,0x10(%rbp)
  403474:	48 89 55 18          	mov    %rdx,0x18(%rbp)
  403478:	66 c7 45 20 65 72    	movw   $0x7265,0x20(%rbp)
  40347e:	c6 45 22 00          	movb   $0x0,0x22(%rbp)
  403482:	89 df                	mov    %ebx,%edi
  403484:	e8 67 de ff ff       	callq  4012f0 <close@plt>
  403489:	b8 ff ff ff ff       	mov    $0xffffffff,%eax
  40348e:	e9 dc fe ff ff       	jmpq   40336f <init_driver+0xe3>
  403493:	e8 18 de ff ff       	callq  4012b0 <__stack_chk_fail@plt>

0000000000403498 <driver_post>:
  403498:	53                   	push   %rbx
  403499:	4c 89 cb             	mov    %r9,%rbx
  40349c:	45 85 c0             	test   %r8d,%r8d
  40349f:	75 18                	jne    4034b9 <driver_post+0x21>
  4034a1:	48 85 ff             	test   %rdi,%rdi
  4034a4:	74 05                	je     4034ab <driver_post+0x13>
  4034a6:	80 3f 00             	cmpb   $0x0,(%rdi)
  4034a9:	75 37                	jne    4034e2 <driver_post+0x4a>
  4034ab:	66 c7 03 4f 4b       	movw   $0x4b4f,(%rbx)
  4034b0:	c6 43 02 00          	movb   $0x0,0x2(%rbx)
  4034b4:	44 89 c0             	mov    %r8d,%eax
  4034b7:	5b                   	pop    %rbx
  4034b8:	c3                   	retq   
  4034b9:	48 89 ca             	mov    %rcx,%rdx
  4034bc:	48 8d 35 e6 12 00 00 	lea    0x12e6(%rip),%rsi        # 4047a9 <trans_char+0xc9>
  4034c3:	bf 01 00 00 00       	mov    $0x1,%edi
  4034c8:	b8 00 00 00 00       	mov    $0x0,%eax
  4034cd:	e8 ce de ff ff       	callq  4013a0 <__printf_chk@plt>
  4034d2:	66 c7 03 4f 4b       	movw   $0x4b4f,(%rbx)
  4034d7:	c6 43 02 00          	movb   $0x0,0x2(%rbx)
  4034db:	b8 00 00 00 00       	mov    $0x0,%eax
  4034e0:	eb d5                	jmp    4034b7 <driver_post+0x1f>
  4034e2:	48 83 ec 08          	sub    $0x8,%rsp
  4034e6:	41 51                	push   %r9
  4034e8:	49 89 c9             	mov    %rcx,%r9
  4034eb:	49 89 d0             	mov    %rdx,%r8
  4034ee:	48 89 f9             	mov    %rdi,%rcx
  4034f1:	48 89 f2             	mov    %rsi,%rdx
  4034f4:	be 96 1f 00 00       	mov    $0x1f96,%esi
  4034f9:	48 8d 3d e4 0d 00 00 	lea    0xde4(%rip),%rdi        # 4042e4 <_IO_stdin_used+0x2e4>
  403500:	e8 ce f5 ff ff       	callq  402ad3 <submitr>
  403505:	48 83 c4 10          	add    $0x10,%rsp
  403509:	eb ac                	jmp    4034b7 <driver_post+0x1f>

000000000040350b <check>:
  40350b:	f3 0f 1e fa          	endbr64 
  40350f:	89 f8                	mov    %edi,%eax
  403511:	c1 e8 1c             	shr    $0x1c,%eax
  403514:	74 1d                	je     403533 <check+0x28>
  403516:	b9 00 00 00 00       	mov    $0x0,%ecx
  40351b:	83 f9 1f             	cmp    $0x1f,%ecx
  40351e:	7f 0d                	jg     40352d <check+0x22>
  403520:	89 f8                	mov    %edi,%eax
  403522:	d3 e8                	shr    %cl,%eax
  403524:	3c 0a                	cmp    $0xa,%al
  403526:	74 11                	je     403539 <check+0x2e>
  403528:	83 c1 08             	add    $0x8,%ecx
  40352b:	eb ee                	jmp    40351b <check+0x10>
  40352d:	b8 01 00 00 00       	mov    $0x1,%eax
  403532:	c3                   	retq   
  403533:	b8 00 00 00 00       	mov    $0x0,%eax
  403538:	c3                   	retq   
  403539:	b8 00 00 00 00       	mov    $0x0,%eax
  40353e:	c3                   	retq   

000000000040353f <gencookie>:
  40353f:	f3 0f 1e fa          	endbr64 
  403543:	53                   	push   %rbx
  403544:	83 c7 01             	add    $0x1,%edi
  403547:	e8 14 dd ff ff       	callq  401260 <srandom@plt>
  40354c:	e8 1f de ff ff       	callq  401370 <random@plt>
  403551:	48 89 c7             	mov    %rax,%rdi
  403554:	89 c3                	mov    %eax,%ebx
  403556:	e8 b0 ff ff ff       	callq  40350b <check>
  40355b:	85 c0                	test   %eax,%eax
  40355d:	74 ed                	je     40354c <gencookie+0xd>
  40355f:	89 d8                	mov    %ebx,%eax
  403561:	5b                   	pop    %rbx
  403562:	c3                   	retq   
  403563:	66 2e 0f 1f 84 00 00 	nopw   %cs:0x0(%rax,%rax,1)
  40356a:	00 00 00 
  40356d:	0f 1f 00             	nopl   (%rax)

0000000000403570 <__libc_csu_init>:
  403570:	f3 0f 1e fa          	endbr64 
  403574:	41 57                	push   %r15
  403576:	4c 8d 3d 93 38 00 00 	lea    0x3893(%rip),%r15        # 406e10 <__frame_dummy_init_array_entry>
  40357d:	41 56                	push   %r14
  40357f:	49 89 d6             	mov    %rdx,%r14
  403582:	41 55                	push   %r13
  403584:	49 89 f5             	mov    %rsi,%r13
  403587:	41 54                	push   %r12
  403589:	41 89 fc             	mov    %edi,%r12d
  40358c:	55                   	push   %rbp
  40358d:	48 8d 2d 84 38 00 00 	lea    0x3884(%rip),%rbp        # 406e18 <__do_global_dtors_aux_fini_array_entry>
  403594:	53                   	push   %rbx
  403595:	4c 29 fd             	sub    %r15,%rbp
  403598:	48 83 ec 08          	sub    $0x8,%rsp
  40359c:	e8 5f da ff ff       	callq  401000 <_init>
  4035a1:	48 c1 fd 03          	sar    $0x3,%rbp
  4035a5:	74 1f                	je     4035c6 <__libc_csu_init+0x56>
  4035a7:	31 db                	xor    %ebx,%ebx
  4035a9:	0f 1f 80 00 00 00 00 	nopl   0x0(%rax)
  4035b0:	4c 89 f2             	mov    %r14,%rdx
  4035b3:	4c 89 ee             	mov    %r13,%rsi
  4035b6:	44 89 e7             	mov    %r12d,%edi
  4035b9:	41 ff 14 df          	callq  *(%r15,%rbx,8)
  4035bd:	48 83 c3 01          	add    $0x1,%rbx
  4035c1:	48 39 dd             	cmp    %rbx,%rbp
  4035c4:	75 ea                	jne    4035b0 <__libc_csu_init+0x40>
  4035c6:	48 83 c4 08          	add    $0x8,%rsp
  4035ca:	5b                   	pop    %rbx
  4035cb:	5d                   	pop    %rbp
  4035cc:	41 5c                	pop    %r12
  4035ce:	41 5d                	pop    %r13
  4035d0:	41 5e                	pop    %r14
  4035d2:	41 5f                	pop    %r15
  4035d4:	c3                   	retq   
  4035d5:	66 66 2e 0f 1f 84 00 	data16 nopw %cs:0x0(%rax,%rax,1)
  4035dc:	00 00 00 00 

00000000004035e0 <__libc_csu_fini>:
  4035e0:	f3 0f 1e fa          	endbr64 
  4035e4:	c3                   	retq   

Disassembly of section .fini:

00000000004035e8 <_fini>:
  4035e8:	f3 0f 1e fa          	endbr64 
  4035ec:	48 83 ec 08          	sub    $0x8,%rsp
  4035f0:	48 83 c4 08          	add    $0x8,%rsp
  4035f4:	c3                   	retq   
