
rtarget:     file format elf64-x86-64


Disassembly of section .init:

0000000000401000 <_init>:
  401000:	f3 0f 1e fa          	endbr64 
  401004:	48 83 ec 08          	sub    $0x8,%rsp
  401008:	48 8b 05 e9 5f 00 00 	mov    0x5fe9(%rip),%rax        # 406ff8 <__gmon_start__>
  40100f:	48 85 c0             	test   %rax,%rax
  401012:	74 02                	je     401016 <_init+0x16>
  401014:	ff d0                	callq  *%rax
  401016:	48 83 c4 08          	add    $0x8,%rsp
  40101a:	c3                   	retq   

Disassembly of section .plt:

0000000000401020 <.plt>:
  401020:	ff 35 e2 5f 00 00    	pushq  0x5fe2(%rip)        # 407008 <_GLOBAL_OFFSET_TABLE_+0x8>
  401026:	f2 ff 25 e3 5f 00 00 	bnd jmpq *0x5fe3(%rip)        # 407010 <_GLOBAL_OFFSET_TABLE_+0x10>
  40102d:	0f 1f 00             	nopl   (%rax)
  401030:	f3 0f 1e fa          	endbr64 
  401034:	68 00 00 00 00       	pushq  $0x0
  401039:	f2 e9 e1 ff ff ff    	bnd jmpq 401020 <.plt>
  40103f:	90                   	nop
  401040:	f3 0f 1e fa          	endbr64 
  401044:	68 01 00 00 00       	pushq  $0x1
  401049:	f2 e9 d1 ff ff ff    	bnd jmpq 401020 <.plt>
  40104f:	90                   	nop
  401050:	f3 0f 1e fa          	endbr64 
  401054:	68 02 00 00 00       	pushq  $0x2
  401059:	f2 e9 c1 ff ff ff    	bnd jmpq 401020 <.plt>
  40105f:	90                   	nop
  401060:	f3 0f 1e fa          	endbr64 
  401064:	68 03 00 00 00       	pushq  $0x3
  401069:	f2 e9 b1 ff ff ff    	bnd jmpq 401020 <.plt>
  40106f:	90                   	nop
  401070:	f3 0f 1e fa          	endbr64 
  401074:	68 04 00 00 00       	pushq  $0x4
  401079:	f2 e9 a1 ff ff ff    	bnd jmpq 401020 <.plt>
  40107f:	90                   	nop
  401080:	f3 0f 1e fa          	endbr64 
  401084:	68 05 00 00 00       	pushq  $0x5
  401089:	f2 e9 91 ff ff ff    	bnd jmpq 401020 <.plt>
  40108f:	90                   	nop
  401090:	f3 0f 1e fa          	endbr64 
  401094:	68 06 00 00 00       	pushq  $0x6
  401099:	f2 e9 81 ff ff ff    	bnd jmpq 401020 <.plt>
  40109f:	90                   	nop
  4010a0:	f3 0f 1e fa          	endbr64 
  4010a4:	68 07 00 00 00       	pushq  $0x7
  4010a9:	f2 e9 71 ff ff ff    	bnd jmpq 401020 <.plt>
  4010af:	90                   	nop
  4010b0:	f3 0f 1e fa          	endbr64 
  4010b4:	68 08 00 00 00       	pushq  $0x8
  4010b9:	f2 e9 61 ff ff ff    	bnd jmpq 401020 <.plt>
  4010bf:	90                   	nop
  4010c0:	f3 0f 1e fa          	endbr64 
  4010c4:	68 09 00 00 00       	pushq  $0x9
  4010c9:	f2 e9 51 ff ff ff    	bnd jmpq 401020 <.plt>
  4010cf:	90                   	nop
  4010d0:	f3 0f 1e fa          	endbr64 
  4010d4:	68 0a 00 00 00       	pushq  $0xa
  4010d9:	f2 e9 41 ff ff ff    	bnd jmpq 401020 <.plt>
  4010df:	90                   	nop
  4010e0:	f3 0f 1e fa          	endbr64 
  4010e4:	68 0b 00 00 00       	pushq  $0xb
  4010e9:	f2 e9 31 ff ff ff    	bnd jmpq 401020 <.plt>
  4010ef:	90                   	nop
  4010f0:	f3 0f 1e fa          	endbr64 
  4010f4:	68 0c 00 00 00       	pushq  $0xc
  4010f9:	f2 e9 21 ff ff ff    	bnd jmpq 401020 <.plt>
  4010ff:	90                   	nop
  401100:	f3 0f 1e fa          	endbr64 
  401104:	68 0d 00 00 00       	pushq  $0xd
  401109:	f2 e9 11 ff ff ff    	bnd jmpq 401020 <.plt>
  40110f:	90                   	nop
  401110:	f3 0f 1e fa          	endbr64 
  401114:	68 0e 00 00 00       	pushq  $0xe
  401119:	f2 e9 01 ff ff ff    	bnd jmpq 401020 <.plt>
  40111f:	90                   	nop
  401120:	f3 0f 1e fa          	endbr64 
  401124:	68 0f 00 00 00       	pushq  $0xf
  401129:	f2 e9 f1 fe ff ff    	bnd jmpq 401020 <.plt>
  40112f:	90                   	nop
  401130:	f3 0f 1e fa          	endbr64 
  401134:	68 10 00 00 00       	pushq  $0x10
  401139:	f2 e9 e1 fe ff ff    	bnd jmpq 401020 <.plt>
  40113f:	90                   	nop
  401140:	f3 0f 1e fa          	endbr64 
  401144:	68 11 00 00 00       	pushq  $0x11
  401149:	f2 e9 d1 fe ff ff    	bnd jmpq 401020 <.plt>
  40114f:	90                   	nop
  401150:	f3 0f 1e fa          	endbr64 
  401154:	68 12 00 00 00       	pushq  $0x12
  401159:	f2 e9 c1 fe ff ff    	bnd jmpq 401020 <.plt>
  40115f:	90                   	nop
  401160:	f3 0f 1e fa          	endbr64 
  401164:	68 13 00 00 00       	pushq  $0x13
  401169:	f2 e9 b1 fe ff ff    	bnd jmpq 401020 <.plt>
  40116f:	90                   	nop
  401170:	f3 0f 1e fa          	endbr64 
  401174:	68 14 00 00 00       	pushq  $0x14
  401179:	f2 e9 a1 fe ff ff    	bnd jmpq 401020 <.plt>
  40117f:	90                   	nop
  401180:	f3 0f 1e fa          	endbr64 
  401184:	68 15 00 00 00       	pushq  $0x15
  401189:	f2 e9 91 fe ff ff    	bnd jmpq 401020 <.plt>
  40118f:	90                   	nop
  401190:	f3 0f 1e fa          	endbr64 
  401194:	68 16 00 00 00       	pushq  $0x16
  401199:	f2 e9 81 fe ff ff    	bnd jmpq 401020 <.plt>
  40119f:	90                   	nop
  4011a0:	f3 0f 1e fa          	endbr64 
  4011a4:	68 17 00 00 00       	pushq  $0x17
  4011a9:	f2 e9 71 fe ff ff    	bnd jmpq 401020 <.plt>
  4011af:	90                   	nop
  4011b0:	f3 0f 1e fa          	endbr64 
  4011b4:	68 18 00 00 00       	pushq  $0x18
  4011b9:	f2 e9 61 fe ff ff    	bnd jmpq 401020 <.plt>
  4011bf:	90                   	nop
  4011c0:	f3 0f 1e fa          	endbr64 
  4011c4:	68 19 00 00 00       	pushq  $0x19
  4011c9:	f2 e9 51 fe ff ff    	bnd jmpq 401020 <.plt>
  4011cf:	90                   	nop
  4011d0:	f3 0f 1e fa          	endbr64 
  4011d4:	68 1a 00 00 00       	pushq  $0x1a
  4011d9:	f2 e9 41 fe ff ff    	bnd jmpq 401020 <.plt>
  4011df:	90                   	nop
  4011e0:	f3 0f 1e fa          	endbr64 
  4011e4:	68 1b 00 00 00       	pushq  $0x1b
  4011e9:	f2 e9 31 fe ff ff    	bnd jmpq 401020 <.plt>
  4011ef:	90                   	nop
  4011f0:	f3 0f 1e fa          	endbr64 
  4011f4:	68 1c 00 00 00       	pushq  $0x1c
  4011f9:	f2 e9 21 fe ff ff    	bnd jmpq 401020 <.plt>
  4011ff:	90                   	nop
  401200:	f3 0f 1e fa          	endbr64 
  401204:	68 1d 00 00 00       	pushq  $0x1d
  401209:	f2 e9 11 fe ff ff    	bnd jmpq 401020 <.plt>
  40120f:	90                   	nop
  401210:	f3 0f 1e fa          	endbr64 
  401214:	68 1e 00 00 00       	pushq  $0x1e
  401219:	f2 e9 01 fe ff ff    	bnd jmpq 401020 <.plt>
  40121f:	90                   	nop
  401220:	f3 0f 1e fa          	endbr64 
  401224:	68 1f 00 00 00       	pushq  $0x1f
  401229:	f2 e9 f1 fd ff ff    	bnd jmpq 401020 <.plt>
  40122f:	90                   	nop
  401230:	f3 0f 1e fa          	endbr64 
  401234:	68 20 00 00 00       	pushq  $0x20
  401239:	f2 e9 e1 fd ff ff    	bnd jmpq 401020 <.plt>
  40123f:	90                   	nop

Disassembly of section .plt.sec:

0000000000401240 <strcasecmp@plt>:
  401240:	f3 0f 1e fa          	endbr64 
  401244:	f2 ff 25 cd 5d 00 00 	bnd jmpq *0x5dcd(%rip)        # 407018 <strcasecmp@GLIBC_2.2.5>
  40124b:	0f 1f 44 00 00       	nopl   0x0(%rax,%rax,1)

0000000000401250 <__errno_location@plt>:
  401250:	f3 0f 1e fa          	endbr64 
  401254:	f2 ff 25 c5 5d 00 00 	bnd jmpq *0x5dc5(%rip)        # 407020 <__errno_location@GLIBC_2.2.5>
  40125b:	0f 1f 44 00 00       	nopl   0x0(%rax,%rax,1)

0000000000401260 <srandom@plt>:
  401260:	f3 0f 1e fa          	endbr64 
  401264:	f2 ff 25 bd 5d 00 00 	bnd jmpq *0x5dbd(%rip)        # 407028 <srandom@GLIBC_2.2.5>
  40126b:	0f 1f 44 00 00       	nopl   0x0(%rax,%rax,1)

0000000000401270 <strncmp@plt>:
  401270:	f3 0f 1e fa          	endbr64 
  401274:	f2 ff 25 b5 5d 00 00 	bnd jmpq *0x5db5(%rip)        # 407030 <strncmp@GLIBC_2.2.5>
  40127b:	0f 1f 44 00 00       	nopl   0x0(%rax,%rax,1)

0000000000401280 <strcpy@plt>:
  401280:	f3 0f 1e fa          	endbr64 
  401284:	f2 ff 25 ad 5d 00 00 	bnd jmpq *0x5dad(%rip)        # 407038 <strcpy@GLIBC_2.2.5>
  40128b:	0f 1f 44 00 00       	nopl   0x0(%rax,%rax,1)

0000000000401290 <puts@plt>:
  401290:	f3 0f 1e fa          	endbr64 
  401294:	f2 ff 25 a5 5d 00 00 	bnd jmpq *0x5da5(%rip)        # 407040 <puts@GLIBC_2.2.5>
  40129b:	0f 1f 44 00 00       	nopl   0x0(%rax,%rax,1)

00000000004012a0 <write@plt>:
  4012a0:	f3 0f 1e fa          	endbr64 
  4012a4:	f2 ff 25 9d 5d 00 00 	bnd jmpq *0x5d9d(%rip)        # 407048 <write@GLIBC_2.2.5>
  4012ab:	0f 1f 44 00 00       	nopl   0x0(%rax,%rax,1)

00000000004012b0 <__stack_chk_fail@plt>:
  4012b0:	f3 0f 1e fa          	endbr64 
  4012b4:	f2 ff 25 95 5d 00 00 	bnd jmpq *0x5d95(%rip)        # 407050 <__stack_chk_fail@GLIBC_2.4>
  4012bb:	0f 1f 44 00 00       	nopl   0x0(%rax,%rax,1)

00000000004012c0 <mmap@plt>:
  4012c0:	f3 0f 1e fa          	endbr64 
  4012c4:	f2 ff 25 8d 5d 00 00 	bnd jmpq *0x5d8d(%rip)        # 407058 <mmap@GLIBC_2.2.5>
  4012cb:	0f 1f 44 00 00       	nopl   0x0(%rax,%rax,1)

00000000004012d0 <memset@plt>:
  4012d0:	f3 0f 1e fa          	endbr64 
  4012d4:	f2 ff 25 85 5d 00 00 	bnd jmpq *0x5d85(%rip)        # 407060 <memset@GLIBC_2.2.5>
  4012db:	0f 1f 44 00 00       	nopl   0x0(%rax,%rax,1)

00000000004012e0 <alarm@plt>:
  4012e0:	f3 0f 1e fa          	endbr64 
  4012e4:	f2 ff 25 7d 5d 00 00 	bnd jmpq *0x5d7d(%rip)        # 407068 <alarm@GLIBC_2.2.5>
  4012eb:	0f 1f 44 00 00       	nopl   0x0(%rax,%rax,1)

00000000004012f0 <close@plt>:
  4012f0:	f3 0f 1e fa          	endbr64 
  4012f4:	f2 ff 25 75 5d 00 00 	bnd jmpq *0x5d75(%rip)        # 407070 <close@GLIBC_2.2.5>
  4012fb:	0f 1f 44 00 00       	nopl   0x0(%rax,%rax,1)

0000000000401300 <read@plt>:
  401300:	f3 0f 1e fa          	endbr64 
  401304:	f2 ff 25 6d 5d 00 00 	bnd jmpq *0x5d6d(%rip)        # 407078 <read@GLIBC_2.2.5>
  40130b:	0f 1f 44 00 00       	nopl   0x0(%rax,%rax,1)

0000000000401310 <signal@plt>:
  401310:	f3 0f 1e fa          	endbr64 
  401314:	f2 ff 25 65 5d 00 00 	bnd jmpq *0x5d65(%rip)        # 407080 <signal@GLIBC_2.2.5>
  40131b:	0f 1f 44 00 00       	nopl   0x0(%rax,%rax,1)

0000000000401320 <gethostbyname@plt>:
  401320:	f3 0f 1e fa          	endbr64 
  401324:	f2 ff 25 5d 5d 00 00 	bnd jmpq *0x5d5d(%rip)        # 407088 <gethostbyname@GLIBC_2.2.5>
  40132b:	0f 1f 44 00 00       	nopl   0x0(%rax,%rax,1)

0000000000401330 <__memmove_chk@plt>:
  401330:	f3 0f 1e fa          	endbr64 
  401334:	f2 ff 25 55 5d 00 00 	bnd jmpq *0x5d55(%rip)        # 407090 <__memmove_chk@GLIBC_2.3.4>
  40133b:	0f 1f 44 00 00       	nopl   0x0(%rax,%rax,1)

0000000000401340 <strtol@plt>:
  401340:	f3 0f 1e fa          	endbr64 
  401344:	f2 ff 25 4d 5d 00 00 	bnd jmpq *0x5d4d(%rip)        # 407098 <strtol@GLIBC_2.2.5>
  40134b:	0f 1f 44 00 00       	nopl   0x0(%rax,%rax,1)

0000000000401350 <memcpy@plt>:
  401350:	f3 0f 1e fa          	endbr64 
  401354:	f2 ff 25 45 5d 00 00 	bnd jmpq *0x5d45(%rip)        # 4070a0 <memcpy@GLIBC_2.14>
  40135b:	0f 1f 44 00 00       	nopl   0x0(%rax,%rax,1)

0000000000401360 <time@plt>:
  401360:	f3 0f 1e fa          	endbr64 
  401364:	f2 ff 25 3d 5d 00 00 	bnd jmpq *0x5d3d(%rip)        # 4070a8 <time@GLIBC_2.2.5>
  40136b:	0f 1f 44 00 00       	nopl   0x0(%rax,%rax,1)

0000000000401370 <random@plt>:
  401370:	f3 0f 1e fa          	endbr64 
  401374:	f2 ff 25 35 5d 00 00 	bnd jmpq *0x5d35(%rip)        # 4070b0 <random@GLIBC_2.2.5>
  40137b:	0f 1f 44 00 00       	nopl   0x0(%rax,%rax,1)

0000000000401380 <__isoc99_sscanf@plt>:
  401380:	f3 0f 1e fa          	endbr64 
  401384:	f2 ff 25 2d 5d 00 00 	bnd jmpq *0x5d2d(%rip)        # 4070b8 <__isoc99_sscanf@GLIBC_2.7>
  40138b:	0f 1f 44 00 00       	nopl   0x0(%rax,%rax,1)

0000000000401390 <munmap@plt>:
  401390:	f3 0f 1e fa          	endbr64 
  401394:	f2 ff 25 25 5d 00 00 	bnd jmpq *0x5d25(%rip)        # 4070c0 <munmap@GLIBC_2.2.5>
  40139b:	0f 1f 44 00 00       	nopl   0x0(%rax,%rax,1)

00000000004013a0 <__printf_chk@plt>:
  4013a0:	f3 0f 1e fa          	endbr64 
  4013a4:	f2 ff 25 1d 5d 00 00 	bnd jmpq *0x5d1d(%rip)        # 4070c8 <__printf_chk@GLIBC_2.3.4>
  4013ab:	0f 1f 44 00 00       	nopl   0x0(%rax,%rax,1)

00000000004013b0 <fopen@plt>:
  4013b0:	f3 0f 1e fa          	endbr64 
  4013b4:	f2 ff 25 15 5d 00 00 	bnd jmpq *0x5d15(%rip)        # 4070d0 <fopen@GLIBC_2.2.5>
  4013bb:	0f 1f 44 00 00       	nopl   0x0(%rax,%rax,1)

00000000004013c0 <getopt@plt>:
  4013c0:	f3 0f 1e fa          	endbr64 
  4013c4:	f2 ff 25 0d 5d 00 00 	bnd jmpq *0x5d0d(%rip)        # 4070d8 <getopt@GLIBC_2.2.5>
  4013cb:	0f 1f 44 00 00       	nopl   0x0(%rax,%rax,1)

00000000004013d0 <strtoul@plt>:
  4013d0:	f3 0f 1e fa          	endbr64 
  4013d4:	f2 ff 25 05 5d 00 00 	bnd jmpq *0x5d05(%rip)        # 4070e0 <strtoul@GLIBC_2.2.5>
  4013db:	0f 1f 44 00 00       	nopl   0x0(%rax,%rax,1)

00000000004013e0 <gethostname@plt>:
  4013e0:	f3 0f 1e fa          	endbr64 
  4013e4:	f2 ff 25 fd 5c 00 00 	bnd jmpq *0x5cfd(%rip)        # 4070e8 <gethostname@GLIBC_2.2.5>
  4013eb:	0f 1f 44 00 00       	nopl   0x0(%rax,%rax,1)

00000000004013f0 <exit@plt>:
  4013f0:	f3 0f 1e fa          	endbr64 
  4013f4:	f2 ff 25 f5 5c 00 00 	bnd jmpq *0x5cf5(%rip)        # 4070f0 <exit@GLIBC_2.2.5>
  4013fb:	0f 1f 44 00 00       	nopl   0x0(%rax,%rax,1)

0000000000401400 <connect@plt>:
  401400:	f3 0f 1e fa          	endbr64 
  401404:	f2 ff 25 ed 5c 00 00 	bnd jmpq *0x5ced(%rip)        # 4070f8 <connect@GLIBC_2.2.5>
  40140b:	0f 1f 44 00 00       	nopl   0x0(%rax,%rax,1)

0000000000401410 <__fprintf_chk@plt>:
  401410:	f3 0f 1e fa          	endbr64 
  401414:	f2 ff 25 e5 5c 00 00 	bnd jmpq *0x5ce5(%rip)        # 407100 <__fprintf_chk@GLIBC_2.3.4>
  40141b:	0f 1f 44 00 00       	nopl   0x0(%rax,%rax,1)

0000000000401420 <getc@plt>:
  401420:	f3 0f 1e fa          	endbr64 
  401424:	f2 ff 25 dd 5c 00 00 	bnd jmpq *0x5cdd(%rip)        # 407108 <getc@GLIBC_2.2.5>
  40142b:	0f 1f 44 00 00       	nopl   0x0(%rax,%rax,1)

0000000000401430 <__sprintf_chk@plt>:
  401430:	f3 0f 1e fa          	endbr64 
  401434:	f2 ff 25 d5 5c 00 00 	bnd jmpq *0x5cd5(%rip)        # 407110 <__sprintf_chk@GLIBC_2.3.4>
  40143b:	0f 1f 44 00 00       	nopl   0x0(%rax,%rax,1)

0000000000401440 <socket@plt>:
  401440:	f3 0f 1e fa          	endbr64 
  401444:	f2 ff 25 cd 5c 00 00 	bnd jmpq *0x5ccd(%rip)        # 407118 <socket@GLIBC_2.2.5>
  40144b:	0f 1f 44 00 00       	nopl   0x0(%rax,%rax,1)

Disassembly of section .text:

0000000000401450 <_start>:
  401450:	f3 0f 1e fa          	endbr64 
  401454:	31 ed                	xor    %ebp,%ebp
  401456:	49 89 d1             	mov    %rdx,%r9
  401459:	5e                   	pop    %rsi
  40145a:	48 89 e2             	mov    %rsp,%rdx
  40145d:	48 83 e4 f0          	and    $0xfffffffffffffff0,%rsp
  401461:	50                   	push   %rax
  401462:	54                   	push   %rsp
  401463:	49 c7 c0 b0 37 40 00 	mov    $0x4037b0,%r8
  40146a:	48 c7 c1 40 37 40 00 	mov    $0x403740,%rcx
  401471:	48 c7 c7 79 17 40 00 	mov    $0x401779,%rdi
  401478:	ff 15 72 5b 00 00    	callq  *0x5b72(%rip)        # 406ff0 <__libc_start_main@GLIBC_2.2.5>
  40147e:	f4                   	hlt    
  40147f:	90                   	nop

0000000000401480 <_dl_relocate_static_pie>:
  401480:	f3 0f 1e fa          	endbr64 
  401484:	c3                   	retq   
  401485:	66 2e 0f 1f 84 00 00 	nopw   %cs:0x0(%rax,%rax,1)
  40148c:	00 00 00 
  40148f:	90                   	nop

0000000000401490 <deregister_tm_clones>:
  401490:	b8 90 74 40 00       	mov    $0x407490,%eax
  401495:	48 3d 90 74 40 00    	cmp    $0x407490,%rax
  40149b:	74 13                	je     4014b0 <deregister_tm_clones+0x20>
  40149d:	b8 00 00 00 00       	mov    $0x0,%eax
  4014a2:	48 85 c0             	test   %rax,%rax
  4014a5:	74 09                	je     4014b0 <deregister_tm_clones+0x20>
  4014a7:	bf 90 74 40 00       	mov    $0x407490,%edi
  4014ac:	ff e0                	jmpq   *%rax
  4014ae:	66 90                	xchg   %ax,%ax
  4014b0:	c3                   	retq   
  4014b1:	66 66 2e 0f 1f 84 00 	data16 nopw %cs:0x0(%rax,%rax,1)
  4014b8:	00 00 00 00 
  4014bc:	0f 1f 40 00          	nopl   0x0(%rax)

00000000004014c0 <register_tm_clones>:
  4014c0:	be 90 74 40 00       	mov    $0x407490,%esi
  4014c5:	48 81 ee 90 74 40 00 	sub    $0x407490,%rsi
  4014cc:	48 89 f0             	mov    %rsi,%rax
  4014cf:	48 c1 ee 3f          	shr    $0x3f,%rsi
  4014d3:	48 c1 f8 03          	sar    $0x3,%rax
  4014d7:	48 01 c6             	add    %rax,%rsi
  4014da:	48 d1 fe             	sar    %rsi
  4014dd:	74 11                	je     4014f0 <register_tm_clones+0x30>
  4014df:	b8 00 00 00 00       	mov    $0x0,%eax
  4014e4:	48 85 c0             	test   %rax,%rax
  4014e7:	74 07                	je     4014f0 <register_tm_clones+0x30>
  4014e9:	bf 90 74 40 00       	mov    $0x407490,%edi
  4014ee:	ff e0                	jmpq   *%rax
  4014f0:	c3                   	retq   
  4014f1:	66 66 2e 0f 1f 84 00 	data16 nopw %cs:0x0(%rax,%rax,1)
  4014f8:	00 00 00 00 
  4014fc:	0f 1f 40 00          	nopl   0x0(%rax)

0000000000401500 <__do_global_dtors_aux>:
  401500:	f3 0f 1e fa          	endbr64 
  401504:	80 3d bd 5f 00 00 00 	cmpb   $0x0,0x5fbd(%rip)        # 4074c8 <completed.8061>
  40150b:	75 13                	jne    401520 <__do_global_dtors_aux+0x20>
  40150d:	55                   	push   %rbp
  40150e:	48 89 e5             	mov    %rsp,%rbp
  401511:	e8 7a ff ff ff       	callq  401490 <deregister_tm_clones>
  401516:	c6 05 ab 5f 00 00 01 	movb   $0x1,0x5fab(%rip)        # 4074c8 <completed.8061>
  40151d:	5d                   	pop    %rbp
  40151e:	c3                   	retq   
  40151f:	90                   	nop
  401520:	c3                   	retq   
  401521:	66 66 2e 0f 1f 84 00 	data16 nopw %cs:0x0(%rax,%rax,1)
  401528:	00 00 00 00 
  40152c:	0f 1f 40 00          	nopl   0x0(%rax)

0000000000401530 <frame_dummy>:
  401530:	f3 0f 1e fa          	endbr64 
  401534:	eb 8a                	jmp    4014c0 <register_tm_clones>

0000000000401536 <usage>:
  401536:	50                   	push   %rax
  401537:	58                   	pop    %rax
  401538:	48 83 ec 08          	sub    $0x8,%rsp
  40153c:	48 89 fa             	mov    %rdi,%rdx
  40153f:	83 3d c2 5f 00 00 00 	cmpl   $0x0,0x5fc2(%rip)        # 407508 <is_checker>
  401546:	74 50                	je     401598 <usage+0x62>
  401548:	48 8d 35 b9 2a 00 00 	lea    0x2ab9(%rip),%rsi        # 404008 <_IO_stdin_used+0x8>
  40154f:	bf 01 00 00 00       	mov    $0x1,%edi
  401554:	b8 00 00 00 00       	mov    $0x0,%eax
  401559:	e8 42 fe ff ff       	callq  4013a0 <__printf_chk@plt>
  40155e:	48 8d 3d db 2a 00 00 	lea    0x2adb(%rip),%rdi        # 404040 <_IO_stdin_used+0x40>
  401565:	e8 26 fd ff ff       	callq  401290 <puts@plt>
  40156a:	48 8d 3d 47 2c 00 00 	lea    0x2c47(%rip),%rdi        # 4041b8 <_IO_stdin_used+0x1b8>
  401571:	e8 1a fd ff ff       	callq  401290 <puts@plt>
  401576:	48 8d 3d eb 2a 00 00 	lea    0x2aeb(%rip),%rdi        # 404068 <_IO_stdin_used+0x68>
  40157d:	e8 0e fd ff ff       	callq  401290 <puts@plt>
  401582:	48 8d 3d 49 2c 00 00 	lea    0x2c49(%rip),%rdi        # 4041d2 <_IO_stdin_used+0x1d2>
  401589:	e8 02 fd ff ff       	callq  401290 <puts@plt>
  40158e:	bf 00 00 00 00       	mov    $0x0,%edi
  401593:	e8 58 fe ff ff       	callq  4013f0 <exit@plt>
  401598:	48 8d 35 4f 2c 00 00 	lea    0x2c4f(%rip),%rsi        # 4041ee <_IO_stdin_used+0x1ee>
  40159f:	bf 01 00 00 00       	mov    $0x1,%edi
  4015a4:	b8 00 00 00 00       	mov    $0x0,%eax
  4015a9:	e8 f2 fd ff ff       	callq  4013a0 <__printf_chk@plt>
  4015ae:	48 8d 3d db 2a 00 00 	lea    0x2adb(%rip),%rdi        # 404090 <_IO_stdin_used+0x90>
  4015b5:	e8 d6 fc ff ff       	callq  401290 <puts@plt>
  4015ba:	48 8d 3d f7 2a 00 00 	lea    0x2af7(%rip),%rdi        # 4040b8 <_IO_stdin_used+0xb8>
  4015c1:	e8 ca fc ff ff       	callq  401290 <puts@plt>
  4015c6:	48 8d 3d 3f 2c 00 00 	lea    0x2c3f(%rip),%rdi        # 40420c <_IO_stdin_used+0x20c>
  4015cd:	e8 be fc ff ff       	callq  401290 <puts@plt>
  4015d2:	eb ba                	jmp    40158e <usage+0x58>

00000000004015d4 <initialize_target>:
  4015d4:	55                   	push   %rbp
  4015d5:	53                   	push   %rbx
  4015d6:	48 81 ec 00 10 00 00 	sub    $0x1000,%rsp
  4015dd:	48 83 0c 24 00       	orq    $0x0,(%rsp)
  4015e2:	48 81 ec 00 10 00 00 	sub    $0x1000,%rsp
  4015e9:	48 83 0c 24 00       	orq    $0x0,(%rsp)
  4015ee:	48 81 ec 18 01 00 00 	sub    $0x118,%rsp
  4015f5:	89 f5                	mov    %esi,%ebp
  4015f7:	64 48 8b 04 25 28 00 	mov    %fs:0x28,%rax
  4015fe:	00 00 
  401600:	48 89 84 24 08 21 00 	mov    %rax,0x2108(%rsp)
  401607:	00 
  401608:	31 c0                	xor    %eax,%eax
  40160a:	89 3d e8 5e 00 00    	mov    %edi,0x5ee8(%rip)        # 4074f8 <check_level>
  401610:	8b 3d 1a 5b 00 00    	mov    0x5b1a(%rip),%edi        # 407130 <target_id>
  401616:	e8 f6 20 00 00       	callq  403711 <gencookie>
  40161b:	89 c7                	mov    %eax,%edi
  40161d:	89 05 e1 5e 00 00    	mov    %eax,0x5ee1(%rip)        # 407504 <cookie>
  401623:	e8 e9 20 00 00       	callq  403711 <gencookie>
  401628:	89 05 d2 5e 00 00    	mov    %eax,0x5ed2(%rip)        # 407500 <authkey>
  40162e:	8b 05 fc 5a 00 00    	mov    0x5afc(%rip),%eax        # 407130 <target_id>
  401634:	8d 78 01             	lea    0x1(%rax),%edi
  401637:	e8 24 fc ff ff       	callq  401260 <srandom@plt>
  40163c:	e8 2f fd ff ff       	callq  401370 <random@plt>
  401641:	48 89 c7             	mov    %rax,%rdi
  401644:	e8 1c 03 00 00       	callq  401965 <scramble>
  401649:	89 c3                	mov    %eax,%ebx
  40164b:	85 ed                	test   %ebp,%ebp
  40164d:	75 54                	jne    4016a3 <initialize_target+0xcf>
  40164f:	b8 00 00 00 00       	mov    $0x0,%eax
  401654:	01 d8                	add    %ebx,%eax
  401656:	0f b7 c0             	movzwl %ax,%eax
  401659:	8d 04 c5 00 01 00 00 	lea    0x100(,%rax,8),%eax
  401660:	89 c0                	mov    %eax,%eax
  401662:	48 89 05 17 5e 00 00 	mov    %rax,0x5e17(%rip)        # 407480 <buf_offset>
  401669:	c6 05 b8 6a 00 00 72 	movb   $0x72,0x6ab8(%rip)        # 408128 <target_prefix>
  401670:	83 3d 11 5e 00 00 00 	cmpl   $0x0,0x5e11(%rip)        # 407488 <notify>
  401677:	74 09                	je     401682 <initialize_target+0xae>
  401679:	83 3d 88 5e 00 00 00 	cmpl   $0x0,0x5e88(%rip)        # 407508 <is_checker>
  401680:	74 3a                	je     4016bc <initialize_target+0xe8>
  401682:	48 8b 84 24 08 21 00 	mov    0x2108(%rsp),%rax
  401689:	00 
  40168a:	64 48 33 04 25 28 00 	xor    %fs:0x28,%rax
  401691:	00 00 
  401693:	0f 85 db 00 00 00    	jne    401774 <initialize_target+0x1a0>
  401699:	48 81 c4 18 21 00 00 	add    $0x2118,%rsp
  4016a0:	5b                   	pop    %rbx
  4016a1:	5d                   	pop    %rbp
  4016a2:	c3                   	retq   
  4016a3:	bf 00 00 00 00       	mov    $0x0,%edi
  4016a8:	e8 b3 fc ff ff       	callq  401360 <time@plt>
  4016ad:	48 89 c7             	mov    %rax,%rdi
  4016b0:	e8 ab fb ff ff       	callq  401260 <srandom@plt>
  4016b5:	e8 b6 fc ff ff       	callq  401370 <random@plt>
  4016ba:	eb 98                	jmp    401654 <initialize_target+0x80>
  4016bc:	48 89 e7             	mov    %rsp,%rdi
  4016bf:	be 00 01 00 00       	mov    $0x100,%esi
  4016c4:	e8 17 fd ff ff       	callq  4013e0 <gethostname@plt>
  4016c9:	89 c5                	mov    %eax,%ebp
  4016cb:	85 c0                	test   %eax,%eax
  4016cd:	75 26                	jne    4016f5 <initialize_target+0x121>
  4016cf:	89 c3                	mov    %eax,%ebx
  4016d1:	48 63 c3             	movslq %ebx,%rax
  4016d4:	48 8d 15 85 5a 00 00 	lea    0x5a85(%rip),%rdx        # 407160 <host_table>
  4016db:	48 8b 3c c2          	mov    (%rdx,%rax,8),%rdi
  4016df:	48 85 ff             	test   %rdi,%rdi
  4016e2:	74 2c                	je     401710 <initialize_target+0x13c>
  4016e4:	48 89 e6             	mov    %rsp,%rsi
  4016e7:	e8 54 fb ff ff       	callq  401240 <strcasecmp@plt>
  4016ec:	85 c0                	test   %eax,%eax
  4016ee:	74 1b                	je     40170b <initialize_target+0x137>
  4016f0:	83 c3 01             	add    $0x1,%ebx
  4016f3:	eb dc                	jmp    4016d1 <initialize_target+0xfd>
  4016f5:	48 8d 3d ec 29 00 00 	lea    0x29ec(%rip),%rdi        # 4040e8 <_IO_stdin_used+0xe8>
  4016fc:	e8 8f fb ff ff       	callq  401290 <puts@plt>
  401701:	bf 08 00 00 00       	mov    $0x8,%edi
  401706:	e8 e5 fc ff ff       	callq  4013f0 <exit@plt>
  40170b:	bd 01 00 00 00       	mov    $0x1,%ebp
  401710:	85 ed                	test   %ebp,%ebp
  401712:	74 3d                	je     401751 <initialize_target+0x17d>
  401714:	48 8d bc 24 00 01 00 	lea    0x100(%rsp),%rdi
  40171b:	00 
  40171c:	e8 3d 1d 00 00       	callq  40345e <init_driver>
  401721:	85 c0                	test   %eax,%eax
  401723:	0f 89 59 ff ff ff    	jns    401682 <initialize_target+0xae>
  401729:	48 8d 94 24 00 01 00 	lea    0x100(%rsp),%rdx
  401730:	00 
  401731:	48 8d 35 28 2a 00 00 	lea    0x2a28(%rip),%rsi        # 404160 <_IO_stdin_used+0x160>
  401738:	bf 01 00 00 00       	mov    $0x1,%edi
  40173d:	b8 00 00 00 00       	mov    $0x0,%eax
  401742:	e8 59 fc ff ff       	callq  4013a0 <__printf_chk@plt>
  401747:	bf 08 00 00 00       	mov    $0x8,%edi
  40174c:	e8 9f fc ff ff       	callq  4013f0 <exit@plt>
  401751:	48 89 e2             	mov    %rsp,%rdx
  401754:	48 8d 35 c5 29 00 00 	lea    0x29c5(%rip),%rsi        # 404120 <_IO_stdin_used+0x120>
  40175b:	bf 01 00 00 00       	mov    $0x1,%edi
  401760:	b8 00 00 00 00       	mov    $0x0,%eax
  401765:	e8 36 fc ff ff       	callq  4013a0 <__printf_chk@plt>
  40176a:	bf 08 00 00 00       	mov    $0x8,%edi
  40176f:	e8 7c fc ff ff       	callq  4013f0 <exit@plt>
  401774:	e8 37 fb ff ff       	callq  4012b0 <__stack_chk_fail@plt>

0000000000401779 <main>:
  401779:	41 56                	push   %r14
  40177b:	41 55                	push   %r13
  40177d:	41 54                	push   %r12
  40177f:	55                   	push   %rbp
  401780:	53                   	push   %rbx
  401781:	89 fd                	mov    %edi,%ebp
  401783:	48 89 f3             	mov    %rsi,%rbx
  401786:	48 c7 c6 21 27 40 00 	mov    $0x402721,%rsi
  40178d:	bf 0b 00 00 00       	mov    $0xb,%edi
  401792:	e8 79 fb ff ff       	callq  401310 <signal@plt>
  401797:	48 c7 c6 cb 26 40 00 	mov    $0x4026cb,%rsi
  40179e:	bf 07 00 00 00       	mov    $0x7,%edi
  4017a3:	e8 68 fb ff ff       	callq  401310 <signal@plt>
  4017a8:	48 c7 c6 77 27 40 00 	mov    $0x402777,%rsi
  4017af:	bf 04 00 00 00       	mov    $0x4,%edi
  4017b4:	e8 57 fb ff ff       	callq  401310 <signal@plt>
  4017b9:	83 3d 48 5d 00 00 00 	cmpl   $0x0,0x5d48(%rip)        # 407508 <is_checker>
  4017c0:	75 26                	jne    4017e8 <main+0x6f>
  4017c2:	4c 8d 25 64 2a 00 00 	lea    0x2a64(%rip),%r12        # 40422d <_IO_stdin_used+0x22d>
  4017c9:	48 8b 05 d0 5c 00 00 	mov    0x5cd0(%rip),%rax        # 4074a0 <stdin@@GLIBC_2.2.5>
  4017d0:	48 89 05 19 5d 00 00 	mov    %rax,0x5d19(%rip)        # 4074f0 <infile>
  4017d7:	41 bd 00 00 00 00    	mov    $0x0,%r13d
  4017dd:	41 be 00 00 00 00    	mov    $0x0,%r14d
  4017e3:	e9 8d 00 00 00       	jmpq   401875 <main+0xfc>
  4017e8:	48 c7 c6 cd 27 40 00 	mov    $0x4027cd,%rsi
  4017ef:	bf 0e 00 00 00       	mov    $0xe,%edi
  4017f4:	e8 17 fb ff ff       	callq  401310 <signal@plt>
  4017f9:	bf 05 00 00 00       	mov    $0x5,%edi
  4017fe:	e8 dd fa ff ff       	callq  4012e0 <alarm@plt>
  401803:	4c 8d 25 1b 2a 00 00 	lea    0x2a1b(%rip),%r12        # 404225 <_IO_stdin_used+0x225>
  40180a:	eb bd                	jmp    4017c9 <main+0x50>
  40180c:	48 8b 3b             	mov    (%rbx),%rdi
  40180f:	e8 22 fd ff ff       	callq  401536 <usage>
  401814:	48 8d 35 db 2a 00 00 	lea    0x2adb(%rip),%rsi        # 4042f6 <_IO_stdin_used+0x2f6>
  40181b:	48 8b 3d 86 5c 00 00 	mov    0x5c86(%rip),%rdi        # 4074a8 <optarg@@GLIBC_2.2.5>
  401822:	e8 89 fb ff ff       	callq  4013b0 <fopen@plt>
  401827:	48 89 05 c2 5c 00 00 	mov    %rax,0x5cc2(%rip)        # 4074f0 <infile>
  40182e:	48 85 c0             	test   %rax,%rax
  401831:	75 42                	jne    401875 <main+0xfc>
  401833:	48 8b 0d 6e 5c 00 00 	mov    0x5c6e(%rip),%rcx        # 4074a8 <optarg@@GLIBC_2.2.5>
  40183a:	48 8d 15 f1 29 00 00 	lea    0x29f1(%rip),%rdx        # 404232 <_IO_stdin_used+0x232>
  401841:	be 01 00 00 00       	mov    $0x1,%esi
  401846:	48 8b 3d 73 5c 00 00 	mov    0x5c73(%rip),%rdi        # 4074c0 <stderr@@GLIBC_2.2.5>
  40184d:	e8 be fb ff ff       	callq  401410 <__fprintf_chk@plt>
  401852:	b8 01 00 00 00       	mov    $0x1,%eax
  401857:	e9 db 00 00 00       	jmpq   401937 <main+0x1be>
  40185c:	ba 10 00 00 00       	mov    $0x10,%edx
  401861:	be 00 00 00 00       	mov    $0x0,%esi
  401866:	48 8b 3d 3b 5c 00 00 	mov    0x5c3b(%rip),%rdi        # 4074a8 <optarg@@GLIBC_2.2.5>
  40186d:	e8 5e fb ff ff       	callq  4013d0 <strtoul@plt>
  401872:	41 89 c6             	mov    %eax,%r14d
  401875:	4c 89 e2             	mov    %r12,%rdx
  401878:	48 89 de             	mov    %rbx,%rsi
  40187b:	89 ef                	mov    %ebp,%edi
  40187d:	e8 3e fb ff ff       	callq  4013c0 <getopt@plt>
  401882:	3c ff                	cmp    $0xff,%al
  401884:	74 65                	je     4018eb <main+0x172>
  401886:	0f be c8             	movsbl %al,%ecx
  401889:	83 e8 61             	sub    $0x61,%eax
  40188c:	3c 10                	cmp    $0x10,%al
  40188e:	77 3b                	ja     4018cb <main+0x152>
  401890:	0f b6 c0             	movzbl %al,%eax
  401893:	48 8d 15 d6 29 00 00 	lea    0x29d6(%rip),%rdx        # 404270 <_IO_stdin_used+0x270>
  40189a:	48 63 04 82          	movslq (%rdx,%rax,4),%rax
  40189e:	48 01 d0             	add    %rdx,%rax
  4018a1:	3e ff e0             	notrack jmpq *%rax
  4018a4:	ba 0a 00 00 00       	mov    $0xa,%edx
  4018a9:	be 00 00 00 00       	mov    $0x0,%esi
  4018ae:	48 8b 3d f3 5b 00 00 	mov    0x5bf3(%rip),%rdi        # 4074a8 <optarg@@GLIBC_2.2.5>
  4018b5:	e8 86 fa ff ff       	callq  401340 <strtol@plt>
  4018ba:	41 89 c5             	mov    %eax,%r13d
  4018bd:	eb b6                	jmp    401875 <main+0xfc>
  4018bf:	c7 05 bf 5b 00 00 00 	movl   $0x0,0x5bbf(%rip)        # 407488 <notify>
  4018c6:	00 00 00 
  4018c9:	eb aa                	jmp    401875 <main+0xfc>
  4018cb:	89 ca                	mov    %ecx,%edx
  4018cd:	48 8d 35 7b 29 00 00 	lea    0x297b(%rip),%rsi        # 40424f <_IO_stdin_used+0x24f>
  4018d4:	bf 01 00 00 00       	mov    $0x1,%edi
  4018d9:	b8 00 00 00 00       	mov    $0x0,%eax
  4018de:	e8 bd fa ff ff       	callq  4013a0 <__printf_chk@plt>
  4018e3:	48 8b 3b             	mov    (%rbx),%rdi
  4018e6:	e8 4b fc ff ff       	callq  401536 <usage>
  4018eb:	be 01 00 00 00       	mov    $0x1,%esi
  4018f0:	44 89 ef             	mov    %r13d,%edi
  4018f3:	e8 dc fc ff ff       	callq  4015d4 <initialize_target>
  4018f8:	83 3d 09 5c 00 00 00 	cmpl   $0x0,0x5c09(%rip)        # 407508 <is_checker>
  4018ff:	74 09                	je     40190a <main+0x191>
  401901:	44 39 35 f8 5b 00 00 	cmp    %r14d,0x5bf8(%rip)        # 407500 <authkey>
  401908:	75 36                	jne    401940 <main+0x1c7>
  40190a:	8b 15 f4 5b 00 00    	mov    0x5bf4(%rip),%edx        # 407504 <cookie>
  401910:	48 8d 35 4b 29 00 00 	lea    0x294b(%rip),%rsi        # 404262 <_IO_stdin_used+0x262>
  401917:	bf 01 00 00 00       	mov    $0x1,%edi
  40191c:	b8 00 00 00 00       	mov    $0x0,%eax
  401921:	e8 7a fa ff ff       	callq  4013a0 <__printf_chk@plt>
  401926:	48 8b 3d 53 5b 00 00 	mov    0x5b53(%rip),%rdi        # 407480 <buf_offset>
  40192d:	e8 f4 0e 00 00       	callq  402826 <launch>
  401932:	b8 00 00 00 00       	mov    $0x0,%eax
  401937:	5b                   	pop    %rbx
  401938:	5d                   	pop    %rbp
  401939:	41 5c                	pop    %r12
  40193b:	41 5d                	pop    %r13
  40193d:	41 5e                	pop    %r14
  40193f:	c3                   	retq   
  401940:	44 89 f2             	mov    %r14d,%edx
  401943:	48 8d 35 3e 28 00 00 	lea    0x283e(%rip),%rsi        # 404188 <_IO_stdin_used+0x188>
  40194a:	bf 01 00 00 00       	mov    $0x1,%edi
  40194f:	b8 00 00 00 00       	mov    $0x0,%eax
  401954:	e8 47 fa ff ff       	callq  4013a0 <__printf_chk@plt>
  401959:	b8 00 00 00 00       	mov    $0x0,%eax
  40195e:	e8 cb 09 00 00       	callq  40232e <check_fail>
  401963:	eb a5                	jmp    40190a <main+0x191>

0000000000401965 <scramble>:
  401965:	48 83 ec 38          	sub    $0x38,%rsp
  401969:	64 48 8b 04 25 28 00 	mov    %fs:0x28,%rax
  401970:	00 00 
  401972:	48 89 44 24 28       	mov    %rax,0x28(%rsp)
  401977:	31 c0                	xor    %eax,%eax
  401979:	83 f8 09             	cmp    $0x9,%eax
  40197c:	77 12                	ja     401990 <scramble+0x2b>
  40197e:	69 d0 a0 3a 00 00    	imul   $0x3aa0,%eax,%edx
  401984:	01 fa                	add    %edi,%edx
  401986:	89 c1                	mov    %eax,%ecx
  401988:	89 14 8c             	mov    %edx,(%rsp,%rcx,4)
  40198b:	83 c0 01             	add    $0x1,%eax
  40198e:	eb e9                	jmp    401979 <scramble+0x14>
  401990:	8b 44 24 14          	mov    0x14(%rsp),%eax
  401994:	69 c0 c5 23 00 00    	imul   $0x23c5,%eax,%eax
  40199a:	89 44 24 14          	mov    %eax,0x14(%rsp)
  40199e:	8b 44 24 1c          	mov    0x1c(%rsp),%eax
  4019a2:	69 c0 80 41 00 00    	imul   $0x4180,%eax,%eax
  4019a8:	89 44 24 1c          	mov    %eax,0x1c(%rsp)
  4019ac:	8b 44 24 08          	mov    0x8(%rsp),%eax
  4019b0:	69 c0 84 65 00 00    	imul   $0x6584,%eax,%eax
  4019b6:	89 44 24 08          	mov    %eax,0x8(%rsp)
  4019ba:	8b 44 24 08          	mov    0x8(%rsp),%eax
  4019be:	69 c0 bd a5 00 00    	imul   $0xa5bd,%eax,%eax
  4019c4:	89 44 24 08          	mov    %eax,0x8(%rsp)
  4019c8:	8b 44 24 18          	mov    0x18(%rsp),%eax
  4019cc:	69 c0 0d 58 00 00    	imul   $0x580d,%eax,%eax
  4019d2:	89 44 24 18          	mov    %eax,0x18(%rsp)
  4019d6:	8b 04 24             	mov    (%rsp),%eax
  4019d9:	69 c0 03 58 00 00    	imul   $0x5803,%eax,%eax
  4019df:	89 04 24             	mov    %eax,(%rsp)
  4019e2:	8b 44 24 14          	mov    0x14(%rsp),%eax
  4019e6:	69 c0 6f 76 00 00    	imul   $0x766f,%eax,%eax
  4019ec:	89 44 24 14          	mov    %eax,0x14(%rsp)
  4019f0:	8b 44 24 04          	mov    0x4(%rsp),%eax
  4019f4:	69 c0 5e e0 00 00    	imul   $0xe05e,%eax,%eax
  4019fa:	89 44 24 04          	mov    %eax,0x4(%rsp)
  4019fe:	8b 44 24 08          	mov    0x8(%rsp),%eax
  401a02:	69 c0 88 84 00 00    	imul   $0x8488,%eax,%eax
  401a08:	89 44 24 08          	mov    %eax,0x8(%rsp)
  401a0c:	8b 44 24 10          	mov    0x10(%rsp),%eax
  401a10:	69 c0 de 93 00 00    	imul   $0x93de,%eax,%eax
  401a16:	89 44 24 10          	mov    %eax,0x10(%rsp)
  401a1a:	8b 44 24 24          	mov    0x24(%rsp),%eax
  401a1e:	69 c0 22 05 00 00    	imul   $0x522,%eax,%eax
  401a24:	89 44 24 24          	mov    %eax,0x24(%rsp)
  401a28:	8b 04 24             	mov    (%rsp),%eax
  401a2b:	69 c0 4c 0d 00 00    	imul   $0xd4c,%eax,%eax
  401a31:	89 04 24             	mov    %eax,(%rsp)
  401a34:	8b 44 24 1c          	mov    0x1c(%rsp),%eax
  401a38:	69 c0 64 5b 00 00    	imul   $0x5b64,%eax,%eax
  401a3e:	89 44 24 1c          	mov    %eax,0x1c(%rsp)
  401a42:	8b 44 24 24          	mov    0x24(%rsp),%eax
  401a46:	69 c0 18 62 00 00    	imul   $0x6218,%eax,%eax
  401a4c:	89 44 24 24          	mov    %eax,0x24(%rsp)
  401a50:	8b 44 24 18          	mov    0x18(%rsp),%eax
  401a54:	69 c0 52 8b 00 00    	imul   $0x8b52,%eax,%eax
  401a5a:	89 44 24 18          	mov    %eax,0x18(%rsp)
  401a5e:	8b 44 24 0c          	mov    0xc(%rsp),%eax
  401a62:	69 c0 e4 a2 00 00    	imul   $0xa2e4,%eax,%eax
  401a68:	89 44 24 0c          	mov    %eax,0xc(%rsp)
  401a6c:	8b 44 24 20          	mov    0x20(%rsp),%eax
  401a70:	69 c0 0b 76 00 00    	imul   $0x760b,%eax,%eax
  401a76:	89 44 24 20          	mov    %eax,0x20(%rsp)
  401a7a:	8b 44 24 14          	mov    0x14(%rsp),%eax
  401a7e:	69 c0 1a 4f 00 00    	imul   $0x4f1a,%eax,%eax
  401a84:	89 44 24 14          	mov    %eax,0x14(%rsp)
  401a88:	8b 44 24 14          	mov    0x14(%rsp),%eax
  401a8c:	69 c0 0c 74 00 00    	imul   $0x740c,%eax,%eax
  401a92:	89 44 24 14          	mov    %eax,0x14(%rsp)
  401a96:	8b 44 24 18          	mov    0x18(%rsp),%eax
  401a9a:	69 c0 9c fd 00 00    	imul   $0xfd9c,%eax,%eax
  401aa0:	89 44 24 18          	mov    %eax,0x18(%rsp)
  401aa4:	8b 44 24 0c          	mov    0xc(%rsp),%eax
  401aa8:	69 c0 3d 4b 00 00    	imul   $0x4b3d,%eax,%eax
  401aae:	89 44 24 0c          	mov    %eax,0xc(%rsp)
  401ab2:	8b 04 24             	mov    (%rsp),%eax
  401ab5:	69 c0 c6 6f 00 00    	imul   $0x6fc6,%eax,%eax
  401abb:	89 04 24             	mov    %eax,(%rsp)
  401abe:	8b 44 24 08          	mov    0x8(%rsp),%eax
  401ac2:	69 c0 4c 52 00 00    	imul   $0x524c,%eax,%eax
  401ac8:	89 44 24 08          	mov    %eax,0x8(%rsp)
  401acc:	8b 44 24 20          	mov    0x20(%rsp),%eax
  401ad0:	69 c0 59 dd 00 00    	imul   $0xdd59,%eax,%eax
  401ad6:	89 44 24 20          	mov    %eax,0x20(%rsp)
  401ada:	8b 44 24 1c          	mov    0x1c(%rsp),%eax
  401ade:	69 c0 0c 5e 00 00    	imul   $0x5e0c,%eax,%eax
  401ae4:	89 44 24 1c          	mov    %eax,0x1c(%rsp)
  401ae8:	8b 44 24 18          	mov    0x18(%rsp),%eax
  401aec:	69 c0 d8 86 00 00    	imul   $0x86d8,%eax,%eax
  401af2:	89 44 24 18          	mov    %eax,0x18(%rsp)
  401af6:	8b 44 24 20          	mov    0x20(%rsp),%eax
  401afa:	69 c0 94 ab 00 00    	imul   $0xab94,%eax,%eax
  401b00:	89 44 24 20          	mov    %eax,0x20(%rsp)
  401b04:	8b 44 24 08          	mov    0x8(%rsp),%eax
  401b08:	69 c0 37 09 00 00    	imul   $0x937,%eax,%eax
  401b0e:	89 44 24 08          	mov    %eax,0x8(%rsp)
  401b12:	8b 44 24 24          	mov    0x24(%rsp),%eax
  401b16:	69 c0 23 0e 00 00    	imul   $0xe23,%eax,%eax
  401b1c:	89 44 24 24          	mov    %eax,0x24(%rsp)
  401b20:	8b 44 24 1c          	mov    0x1c(%rsp),%eax
  401b24:	69 c0 3c 6f 00 00    	imul   $0x6f3c,%eax,%eax
  401b2a:	89 44 24 1c          	mov    %eax,0x1c(%rsp)
  401b2e:	8b 44 24 10          	mov    0x10(%rsp),%eax
  401b32:	69 c0 a1 a6 00 00    	imul   $0xa6a1,%eax,%eax
  401b38:	89 44 24 10          	mov    %eax,0x10(%rsp)
  401b3c:	8b 44 24 04          	mov    0x4(%rsp),%eax
  401b40:	69 c0 8c 48 00 00    	imul   $0x488c,%eax,%eax
  401b46:	89 44 24 04          	mov    %eax,0x4(%rsp)
  401b4a:	8b 44 24 08          	mov    0x8(%rsp),%eax
  401b4e:	69 c0 84 f6 00 00    	imul   $0xf684,%eax,%eax
  401b54:	89 44 24 08          	mov    %eax,0x8(%rsp)
  401b58:	8b 44 24 10          	mov    0x10(%rsp),%eax
  401b5c:	69 c0 3c f8 00 00    	imul   $0xf83c,%eax,%eax
  401b62:	89 44 24 10          	mov    %eax,0x10(%rsp)
  401b66:	8b 44 24 18          	mov    0x18(%rsp),%eax
  401b6a:	69 c0 7d 8c 00 00    	imul   $0x8c7d,%eax,%eax
  401b70:	89 44 24 18          	mov    %eax,0x18(%rsp)
  401b74:	8b 04 24             	mov    (%rsp),%eax
  401b77:	69 c0 aa 36 00 00    	imul   $0x36aa,%eax,%eax
  401b7d:	89 04 24             	mov    %eax,(%rsp)
  401b80:	8b 44 24 04          	mov    0x4(%rsp),%eax
  401b84:	69 c0 77 4b 00 00    	imul   $0x4b77,%eax,%eax
  401b8a:	89 44 24 04          	mov    %eax,0x4(%rsp)
  401b8e:	8b 44 24 0c          	mov    0xc(%rsp),%eax
  401b92:	69 c0 67 99 00 00    	imul   $0x9967,%eax,%eax
  401b98:	89 44 24 0c          	mov    %eax,0xc(%rsp)
  401b9c:	8b 44 24 18          	mov    0x18(%rsp),%eax
  401ba0:	69 c0 95 f6 00 00    	imul   $0xf695,%eax,%eax
  401ba6:	89 44 24 18          	mov    %eax,0x18(%rsp)
  401baa:	8b 04 24             	mov    (%rsp),%eax
  401bad:	69 c0 97 74 00 00    	imul   $0x7497,%eax,%eax
  401bb3:	89 04 24             	mov    %eax,(%rsp)
  401bb6:	8b 44 24 1c          	mov    0x1c(%rsp),%eax
  401bba:	69 c0 f8 e7 00 00    	imul   $0xe7f8,%eax,%eax
  401bc0:	89 44 24 1c          	mov    %eax,0x1c(%rsp)
  401bc4:	8b 04 24             	mov    (%rsp),%eax
  401bc7:	69 c0 d0 b7 00 00    	imul   $0xb7d0,%eax,%eax
  401bcd:	89 04 24             	mov    %eax,(%rsp)
  401bd0:	8b 44 24 1c          	mov    0x1c(%rsp),%eax
  401bd4:	69 c0 94 8f 00 00    	imul   $0x8f94,%eax,%eax
  401bda:	89 44 24 1c          	mov    %eax,0x1c(%rsp)
  401bde:	8b 44 24 0c          	mov    0xc(%rsp),%eax
  401be2:	69 c0 85 9a 00 00    	imul   $0x9a85,%eax,%eax
  401be8:	89 44 24 0c          	mov    %eax,0xc(%rsp)
  401bec:	8b 44 24 24          	mov    0x24(%rsp),%eax
  401bf0:	69 c0 57 2c 00 00    	imul   $0x2c57,%eax,%eax
  401bf6:	89 44 24 24          	mov    %eax,0x24(%rsp)
  401bfa:	8b 44 24 10          	mov    0x10(%rsp),%eax
  401bfe:	69 c0 2d 37 00 00    	imul   $0x372d,%eax,%eax
  401c04:	89 44 24 10          	mov    %eax,0x10(%rsp)
  401c08:	8b 44 24 14          	mov    0x14(%rsp),%eax
  401c0c:	69 c0 e1 1b 00 00    	imul   $0x1be1,%eax,%eax
  401c12:	89 44 24 14          	mov    %eax,0x14(%rsp)
  401c16:	8b 44 24 24          	mov    0x24(%rsp),%eax
  401c1a:	69 c0 a5 ef 00 00    	imul   $0xefa5,%eax,%eax
  401c20:	89 44 24 24          	mov    %eax,0x24(%rsp)
  401c24:	8b 44 24 18          	mov    0x18(%rsp),%eax
  401c28:	69 c0 60 17 00 00    	imul   $0x1760,%eax,%eax
  401c2e:	89 44 24 18          	mov    %eax,0x18(%rsp)
  401c32:	8b 44 24 1c          	mov    0x1c(%rsp),%eax
  401c36:	69 c0 f5 7c 00 00    	imul   $0x7cf5,%eax,%eax
  401c3c:	89 44 24 1c          	mov    %eax,0x1c(%rsp)
  401c40:	8b 04 24             	mov    (%rsp),%eax
  401c43:	69 c0 ba dd 00 00    	imul   $0xddba,%eax,%eax
  401c49:	89 04 24             	mov    %eax,(%rsp)
  401c4c:	8b 44 24 18          	mov    0x18(%rsp),%eax
  401c50:	69 c0 98 7b 00 00    	imul   $0x7b98,%eax,%eax
  401c56:	89 44 24 18          	mov    %eax,0x18(%rsp)
  401c5a:	8b 44 24 04          	mov    0x4(%rsp),%eax
  401c5e:	69 c0 11 5a 00 00    	imul   $0x5a11,%eax,%eax
  401c64:	89 44 24 04          	mov    %eax,0x4(%rsp)
  401c68:	8b 44 24 20          	mov    0x20(%rsp),%eax
  401c6c:	69 c0 f5 c6 00 00    	imul   $0xc6f5,%eax,%eax
  401c72:	89 44 24 20          	mov    %eax,0x20(%rsp)
  401c76:	8b 44 24 0c          	mov    0xc(%rsp),%eax
  401c7a:	69 c0 bf 8b 00 00    	imul   $0x8bbf,%eax,%eax
  401c80:	89 44 24 0c          	mov    %eax,0xc(%rsp)
  401c84:	8b 44 24 0c          	mov    0xc(%rsp),%eax
  401c88:	69 c0 48 a5 00 00    	imul   $0xa548,%eax,%eax
  401c8e:	89 44 24 0c          	mov    %eax,0xc(%rsp)
  401c92:	8b 44 24 24          	mov    0x24(%rsp),%eax
  401c96:	69 c0 fc 36 00 00    	imul   $0x36fc,%eax,%eax
  401c9c:	89 44 24 24          	mov    %eax,0x24(%rsp)
  401ca0:	8b 44 24 20          	mov    0x20(%rsp),%eax
  401ca4:	69 c0 44 07 00 00    	imul   $0x744,%eax,%eax
  401caa:	89 44 24 20          	mov    %eax,0x20(%rsp)
  401cae:	8b 44 24 04          	mov    0x4(%rsp),%eax
  401cb2:	69 c0 20 1e 00 00    	imul   $0x1e20,%eax,%eax
  401cb8:	89 44 24 04          	mov    %eax,0x4(%rsp)
  401cbc:	8b 44 24 1c          	mov    0x1c(%rsp),%eax
  401cc0:	69 c0 48 64 00 00    	imul   $0x6448,%eax,%eax
  401cc6:	89 44 24 1c          	mov    %eax,0x1c(%rsp)
  401cca:	8b 44 24 1c          	mov    0x1c(%rsp),%eax
  401cce:	69 c0 8a ab 00 00    	imul   $0xab8a,%eax,%eax
  401cd4:	89 44 24 1c          	mov    %eax,0x1c(%rsp)
  401cd8:	8b 44 24 24          	mov    0x24(%rsp),%eax
  401cdc:	69 c0 70 1d 00 00    	imul   $0x1d70,%eax,%eax
  401ce2:	89 44 24 24          	mov    %eax,0x24(%rsp)
  401ce6:	8b 44 24 0c          	mov    0xc(%rsp),%eax
  401cea:	69 c0 2e 1b 00 00    	imul   $0x1b2e,%eax,%eax
  401cf0:	89 44 24 0c          	mov    %eax,0xc(%rsp)
  401cf4:	8b 44 24 08          	mov    0x8(%rsp),%eax
  401cf8:	69 c0 d0 d9 00 00    	imul   $0xd9d0,%eax,%eax
  401cfe:	89 44 24 08          	mov    %eax,0x8(%rsp)
  401d02:	8b 44 24 14          	mov    0x14(%rsp),%eax
  401d06:	69 c0 f7 f4 00 00    	imul   $0xf4f7,%eax,%eax
  401d0c:	89 44 24 14          	mov    %eax,0x14(%rsp)
  401d10:	8b 44 24 10          	mov    0x10(%rsp),%eax
  401d14:	69 c0 6c d6 00 00    	imul   $0xd66c,%eax,%eax
  401d1a:	89 44 24 10          	mov    %eax,0x10(%rsp)
  401d1e:	8b 04 24             	mov    (%rsp),%eax
  401d21:	69 c0 65 0a 00 00    	imul   $0xa65,%eax,%eax
  401d27:	89 04 24             	mov    %eax,(%rsp)
  401d2a:	8b 44 24 20          	mov    0x20(%rsp),%eax
  401d2e:	69 c0 e4 fb 00 00    	imul   $0xfbe4,%eax,%eax
  401d34:	89 44 24 20          	mov    %eax,0x20(%rsp)
  401d38:	8b 44 24 0c          	mov    0xc(%rsp),%eax
  401d3c:	69 c0 03 67 00 00    	imul   $0x6703,%eax,%eax
  401d42:	89 44 24 0c          	mov    %eax,0xc(%rsp)
  401d46:	8b 44 24 08          	mov    0x8(%rsp),%eax
  401d4a:	69 c0 1d b5 00 00    	imul   $0xb51d,%eax,%eax
  401d50:	89 44 24 08          	mov    %eax,0x8(%rsp)
  401d54:	8b 44 24 24          	mov    0x24(%rsp),%eax
  401d58:	69 c0 66 fe 00 00    	imul   $0xfe66,%eax,%eax
  401d5e:	89 44 24 24          	mov    %eax,0x24(%rsp)
  401d62:	8b 44 24 04          	mov    0x4(%rsp),%eax
  401d66:	69 c0 7a 66 00 00    	imul   $0x667a,%eax,%eax
  401d6c:	89 44 24 04          	mov    %eax,0x4(%rsp)
  401d70:	8b 44 24 08          	mov    0x8(%rsp),%eax
  401d74:	69 c0 7e b7 00 00    	imul   $0xb77e,%eax,%eax
  401d7a:	89 44 24 08          	mov    %eax,0x8(%rsp)
  401d7e:	8b 44 24 24          	mov    0x24(%rsp),%eax
  401d82:	69 c0 f3 fb 00 00    	imul   $0xfbf3,%eax,%eax
  401d88:	89 44 24 24          	mov    %eax,0x24(%rsp)
  401d8c:	8b 44 24 0c          	mov    0xc(%rsp),%eax
  401d90:	69 c0 87 0f 00 00    	imul   $0xf87,%eax,%eax
  401d96:	89 44 24 0c          	mov    %eax,0xc(%rsp)
  401d9a:	8b 44 24 1c          	mov    0x1c(%rsp),%eax
  401d9e:	69 c0 16 20 00 00    	imul   $0x2016,%eax,%eax
  401da4:	89 44 24 1c          	mov    %eax,0x1c(%rsp)
  401da8:	8b 44 24 08          	mov    0x8(%rsp),%eax
  401dac:	69 c0 b0 fb 00 00    	imul   $0xfbb0,%eax,%eax
  401db2:	89 44 24 08          	mov    %eax,0x8(%rsp)
  401db6:	8b 44 24 1c          	mov    0x1c(%rsp),%eax
  401dba:	69 c0 7c 82 00 00    	imul   $0x827c,%eax,%eax
  401dc0:	89 44 24 1c          	mov    %eax,0x1c(%rsp)
  401dc4:	8b 44 24 18          	mov    0x18(%rsp),%eax
  401dc8:	69 c0 9c 4a 00 00    	imul   $0x4a9c,%eax,%eax
  401dce:	89 44 24 18          	mov    %eax,0x18(%rsp)
  401dd2:	8b 44 24 1c          	mov    0x1c(%rsp),%eax
  401dd6:	69 c0 6d 49 00 00    	imul   $0x496d,%eax,%eax
  401ddc:	89 44 24 1c          	mov    %eax,0x1c(%rsp)
  401de0:	8b 44 24 24          	mov    0x24(%rsp),%eax
  401de4:	69 c0 11 b3 00 00    	imul   $0xb311,%eax,%eax
  401dea:	89 44 24 24          	mov    %eax,0x24(%rsp)
  401dee:	8b 44 24 04          	mov    0x4(%rsp),%eax
  401df2:	69 c0 45 12 00 00    	imul   $0x1245,%eax,%eax
  401df8:	89 44 24 04          	mov    %eax,0x4(%rsp)
  401dfc:	8b 44 24 1c          	mov    0x1c(%rsp),%eax
  401e00:	69 c0 dd 71 00 00    	imul   $0x71dd,%eax,%eax
  401e06:	89 44 24 1c          	mov    %eax,0x1c(%rsp)
  401e0a:	8b 44 24 08          	mov    0x8(%rsp),%eax
  401e0e:	69 c0 ed 21 00 00    	imul   $0x21ed,%eax,%eax
  401e14:	89 44 24 08          	mov    %eax,0x8(%rsp)
  401e18:	8b 04 24             	mov    (%rsp),%eax
  401e1b:	69 c0 03 d1 00 00    	imul   $0xd103,%eax,%eax
  401e21:	89 04 24             	mov    %eax,(%rsp)
  401e24:	8b 44 24 04          	mov    0x4(%rsp),%eax
  401e28:	69 c0 a3 cb 00 00    	imul   $0xcba3,%eax,%eax
  401e2e:	89 44 24 04          	mov    %eax,0x4(%rsp)
  401e32:	8b 44 24 04          	mov    0x4(%rsp),%eax
  401e36:	69 c0 70 31 00 00    	imul   $0x3170,%eax,%eax
  401e3c:	89 44 24 04          	mov    %eax,0x4(%rsp)
  401e40:	8b 04 24             	mov    (%rsp),%eax
  401e43:	69 c0 cc 04 00 00    	imul   $0x4cc,%eax,%eax
  401e49:	89 04 24             	mov    %eax,(%rsp)
  401e4c:	8b 44 24 10          	mov    0x10(%rsp),%eax
  401e50:	69 c0 db 9f 00 00    	imul   $0x9fdb,%eax,%eax
  401e56:	89 44 24 10          	mov    %eax,0x10(%rsp)
  401e5a:	8b 04 24             	mov    (%rsp),%eax
  401e5d:	69 c0 8d be 00 00    	imul   $0xbe8d,%eax,%eax
  401e63:	89 04 24             	mov    %eax,(%rsp)
  401e66:	8b 04 24             	mov    (%rsp),%eax
  401e69:	69 c0 fb 60 00 00    	imul   $0x60fb,%eax,%eax
  401e6f:	89 04 24             	mov    %eax,(%rsp)
  401e72:	8b 44 24 10          	mov    0x10(%rsp),%eax
  401e76:	69 c0 73 6a 00 00    	imul   $0x6a73,%eax,%eax
  401e7c:	89 44 24 10          	mov    %eax,0x10(%rsp)
  401e80:	8b 44 24 14          	mov    0x14(%rsp),%eax
  401e84:	69 c0 2a 1c 00 00    	imul   $0x1c2a,%eax,%eax
  401e8a:	89 44 24 14          	mov    %eax,0x14(%rsp)
  401e8e:	8b 44 24 08          	mov    0x8(%rsp),%eax
  401e92:	69 c0 8b 73 00 00    	imul   $0x738b,%eax,%eax
  401e98:	89 44 24 08          	mov    %eax,0x8(%rsp)
  401e9c:	8b 04 24             	mov    (%rsp),%eax
  401e9f:	69 c0 3b 49 00 00    	imul   $0x493b,%eax,%eax
  401ea5:	89 04 24             	mov    %eax,(%rsp)
  401ea8:	8b 44 24 18          	mov    0x18(%rsp),%eax
  401eac:	69 c0 5a a6 00 00    	imul   $0xa65a,%eax,%eax
  401eb2:	89 44 24 18          	mov    %eax,0x18(%rsp)
  401eb6:	b8 00 00 00 00       	mov    $0x0,%eax
  401ebb:	ba 00 00 00 00       	mov    $0x0,%edx
  401ec0:	83 f8 09             	cmp    $0x9,%eax
  401ec3:	77 0c                	ja     401ed1 <scramble+0x56c>
  401ec5:	89 c1                	mov    %eax,%ecx
  401ec7:	8b 0c 8c             	mov    (%rsp,%rcx,4),%ecx
  401eca:	01 ca                	add    %ecx,%edx
  401ecc:	83 c0 01             	add    $0x1,%eax
  401ecf:	eb ef                	jmp    401ec0 <scramble+0x55b>
  401ed1:	48 8b 44 24 28       	mov    0x28(%rsp),%rax
  401ed6:	64 48 33 04 25 28 00 	xor    %fs:0x28,%rax
  401edd:	00 00 
  401edf:	75 07                	jne    401ee8 <scramble+0x583>
  401ee1:	89 d0                	mov    %edx,%eax
  401ee3:	48 83 c4 38          	add    $0x38,%rsp
  401ee7:	c3                   	retq   
  401ee8:	e8 c3 f3 ff ff       	callq  4012b0 <__stack_chk_fail@plt>

0000000000401eed <getbuf>:
  401eed:	48 83 ec 38          	sub    $0x38,%rsp
  401ef1:	48 89 e7             	mov    %rsp,%rdi
  401ef4:	e8 6f 04 00 00       	callq  402368 <Gets>
  401ef9:	b8 01 00 00 00       	mov    $0x1,%eax
  401efe:	48 83 c4 38          	add    $0x38,%rsp
  401f02:	c3                   	retq   

0000000000401f03 <touch1>:
  401f03:	50                   	push   %rax
  401f04:	58                   	pop    %rax
  401f05:	48 83 ec 08          	sub    $0x8,%rsp
  401f09:	c7 05 e9 55 00 00 01 	movl   $0x1,0x55e9(%rip)        # 4074fc <vlevel>
  401f10:	00 00 00 
  401f13:	48 8d 3d de 23 00 00 	lea    0x23de(%rip),%rdi        # 4042f8 <_IO_stdin_used+0x2f8>
  401f1a:	e8 71 f3 ff ff       	callq  401290 <puts@plt>
  401f1f:	bf 01 00 00 00       	mov    $0x1,%edi
  401f24:	e8 aa 06 00 00       	callq  4025d3 <validate>
  401f29:	bf 00 00 00 00       	mov    $0x0,%edi
  401f2e:	e8 bd f4 ff ff       	callq  4013f0 <exit@plt>

0000000000401f33 <touch2>:
  401f33:	50                   	push   %rax
  401f34:	58                   	pop    %rax
  401f35:	48 83 ec 08          	sub    $0x8,%rsp
  401f39:	89 fa                	mov    %edi,%edx
  401f3b:	c7 05 b7 55 00 00 02 	movl   $0x2,0x55b7(%rip)        # 4074fc <vlevel>
  401f42:	00 00 00 
  401f45:	39 3d b9 55 00 00    	cmp    %edi,0x55b9(%rip)        # 407504 <cookie>
  401f4b:	74 2a                	je     401f77 <touch2+0x44>
  401f4d:	48 8d 35 f4 23 00 00 	lea    0x23f4(%rip),%rsi        # 404348 <_IO_stdin_used+0x348>
  401f54:	bf 01 00 00 00       	mov    $0x1,%edi
  401f59:	b8 00 00 00 00       	mov    $0x0,%eax
  401f5e:	e8 3d f4 ff ff       	callq  4013a0 <__printf_chk@plt>
  401f63:	bf 02 00 00 00       	mov    $0x2,%edi
  401f68:	e8 36 07 00 00       	callq  4026a3 <fail>
  401f6d:	bf 00 00 00 00       	mov    $0x0,%edi
  401f72:	e8 79 f4 ff ff       	callq  4013f0 <exit@plt>
  401f77:	48 8d 35 a2 23 00 00 	lea    0x23a2(%rip),%rsi        # 404320 <_IO_stdin_used+0x320>
  401f7e:	bf 01 00 00 00       	mov    $0x1,%edi
  401f83:	b8 00 00 00 00       	mov    $0x0,%eax
  401f88:	e8 13 f4 ff ff       	callq  4013a0 <__printf_chk@plt>
  401f8d:	bf 02 00 00 00       	mov    $0x2,%edi
  401f92:	e8 3c 06 00 00       	callq  4025d3 <validate>
  401f97:	eb d4                	jmp    401f6d <touch2+0x3a>

0000000000401f99 <hexmatch>:
  401f99:	41 55                	push   %r13
  401f9b:	41 54                	push   %r12
  401f9d:	55                   	push   %rbp
  401f9e:	53                   	push   %rbx
  401f9f:	48 81 ec 88 00 00 00 	sub    $0x88,%rsp
  401fa6:	89 fd                	mov    %edi,%ebp
  401fa8:	48 89 f3             	mov    %rsi,%rbx
  401fab:	41 bc 28 00 00 00    	mov    $0x28,%r12d
  401fb1:	64 49 8b 04 24       	mov    %fs:(%r12),%rax
  401fb6:	48 89 44 24 78       	mov    %rax,0x78(%rsp)
  401fbb:	31 c0                	xor    %eax,%eax
  401fbd:	e8 ae f3 ff ff       	callq  401370 <random@plt>
  401fc2:	48 89 c1             	mov    %rax,%rcx
  401fc5:	48 ba 0b d7 a3 70 3d 	movabs $0xa3d70a3d70a3d70b,%rdx
  401fcc:	0a d7 a3 
  401fcf:	48 f7 ea             	imul   %rdx
  401fd2:	48 01 ca             	add    %rcx,%rdx
  401fd5:	48 c1 fa 06          	sar    $0x6,%rdx
  401fd9:	48 89 c8             	mov    %rcx,%rax
  401fdc:	48 c1 f8 3f          	sar    $0x3f,%rax
  401fe0:	48 29 c2             	sub    %rax,%rdx
  401fe3:	48 8d 04 92          	lea    (%rdx,%rdx,4),%rax
  401fe7:	48 8d 04 80          	lea    (%rax,%rax,4),%rax
  401feb:	48 c1 e0 02          	shl    $0x2,%rax
  401fef:	48 29 c1             	sub    %rax,%rcx
  401ff2:	4c 8d 2c 0c          	lea    (%rsp,%rcx,1),%r13
  401ff6:	41 89 e8             	mov    %ebp,%r8d
  401ff9:	48 8d 0d 15 23 00 00 	lea    0x2315(%rip),%rcx        # 404315 <_IO_stdin_used+0x315>
  402000:	48 c7 c2 ff ff ff ff 	mov    $0xffffffffffffffff,%rdx
  402007:	be 01 00 00 00       	mov    $0x1,%esi
  40200c:	4c 89 ef             	mov    %r13,%rdi
  40200f:	b8 00 00 00 00       	mov    $0x0,%eax
  402014:	e8 17 f4 ff ff       	callq  401430 <__sprintf_chk@plt>
  402019:	ba 09 00 00 00       	mov    $0x9,%edx
  40201e:	4c 89 ee             	mov    %r13,%rsi
  402021:	48 89 df             	mov    %rbx,%rdi
  402024:	e8 47 f2 ff ff       	callq  401270 <strncmp@plt>
  402029:	85 c0                	test   %eax,%eax
  40202b:	0f 94 c0             	sete   %al
  40202e:	48 8b 5c 24 78       	mov    0x78(%rsp),%rbx
  402033:	64 49 33 1c 24       	xor    %fs:(%r12),%rbx
  402038:	75 11                	jne    40204b <hexmatch+0xb2>
  40203a:	0f b6 c0             	movzbl %al,%eax
  40203d:	48 81 c4 88 00 00 00 	add    $0x88,%rsp
  402044:	5b                   	pop    %rbx
  402045:	5d                   	pop    %rbp
  402046:	41 5c                	pop    %r12
  402048:	41 5d                	pop    %r13
  40204a:	c3                   	retq   
  40204b:	e8 60 f2 ff ff       	callq  4012b0 <__stack_chk_fail@plt>

0000000000402050 <touch3>:
  402050:	53                   	push   %rbx
  402051:	48 89 fb             	mov    %rdi,%rbx
  402054:	c7 05 9e 54 00 00 03 	movl   $0x3,0x549e(%rip)        # 4074fc <vlevel>
  40205b:	00 00 00 
  40205e:	48 89 fe             	mov    %rdi,%rsi
  402061:	8b 3d 9d 54 00 00    	mov    0x549d(%rip),%edi        # 407504 <cookie>
  402067:	e8 2d ff ff ff       	callq  401f99 <hexmatch>
  40206c:	85 c0                	test   %eax,%eax
  40206e:	74 2d                	je     40209d <touch3+0x4d>
  402070:	48 89 da             	mov    %rbx,%rdx
  402073:	48 8d 35 f6 22 00 00 	lea    0x22f6(%rip),%rsi        # 404370 <_IO_stdin_used+0x370>
  40207a:	bf 01 00 00 00       	mov    $0x1,%edi
  40207f:	b8 00 00 00 00       	mov    $0x0,%eax
  402084:	e8 17 f3 ff ff       	callq  4013a0 <__printf_chk@plt>
  402089:	bf 03 00 00 00       	mov    $0x3,%edi
  40208e:	e8 40 05 00 00       	callq  4025d3 <validate>
  402093:	bf 00 00 00 00       	mov    $0x0,%edi
  402098:	e8 53 f3 ff ff       	callq  4013f0 <exit@plt>
  40209d:	48 89 da             	mov    %rbx,%rdx
  4020a0:	48 8d 35 f1 22 00 00 	lea    0x22f1(%rip),%rsi        # 404398 <_IO_stdin_used+0x398>
  4020a7:	bf 01 00 00 00       	mov    $0x1,%edi
  4020ac:	b8 00 00 00 00       	mov    $0x0,%eax
  4020b1:	e8 ea f2 ff ff       	callq  4013a0 <__printf_chk@plt>
  4020b6:	bf 03 00 00 00       	mov    $0x3,%edi
  4020bb:	e8 e3 05 00 00       	callq  4026a3 <fail>
  4020c0:	eb d1                	jmp    402093 <touch3+0x43>

00000000004020c2 <test>:
  4020c2:	48 83 ec 08          	sub    $0x8,%rsp
  4020c6:	b8 00 00 00 00       	mov    $0x0,%eax
  4020cb:	e8 1d fe ff ff       	callq  401eed <getbuf>
  4020d0:	89 c2                	mov    %eax,%edx
  4020d2:	48 8d 35 e7 22 00 00 	lea    0x22e7(%rip),%rsi        # 4043c0 <_IO_stdin_used+0x3c0>
  4020d9:	bf 01 00 00 00       	mov    $0x1,%edi
  4020de:	b8 00 00 00 00       	mov    $0x0,%eax
  4020e3:	e8 b8 f2 ff ff       	callq  4013a0 <__printf_chk@plt>
  4020e8:	48 83 c4 08          	add    $0x8,%rsp
  4020ec:	c3                   	retq   

00000000004020ed <start_farm>:
  4020ed:	f3 0f 1e fa          	endbr64 
  4020f1:	b8 01 00 00 00       	mov    $0x1,%eax
  4020f6:	c3                   	retq   

00000000004020f7 <addval_336>:
  4020f7:	f3 0f 1e fa          	endbr64 
  4020fb:	8d 87 58 c3 71 94    	lea    -0x6b8e3ca8(%rdi),%eax
  402101:	c3                   	retq   

0000000000402102 <addval_185>:
  402102:	f3 0f 1e fa          	endbr64 
  402106:	8d 87 48 81 c7 c3    	lea    -0x3c387eb8(%rdi),%eax
  40210c:	c3                   	retq   

000000000040210d <setval_117>:
  40210d:	f3 0f 1e fa          	endbr64 
  402111:	c7 07 48 89 c7 c3    	movl   $0xc3c78948,(%rdi)
  402117:	c3                   	retq   

0000000000402118 <setval_494>:
  402118:	f3 0f 1e fa          	endbr64 
  40211c:	c7 07 48 89 c7 c1    	movl   $0xc1c78948,(%rdi)
  402122:	c3                   	retq   

0000000000402123 <addval_325>:
  402123:	f3 0f 1e fa          	endbr64 
  402127:	8d 87 54 58 90 c3    	lea    -0x3c6fa7ac(%rdi),%eax
  40212d:	c3                   	retq   

000000000040212e <setval_203>:
  40212e:	f3 0f 1e fa          	endbr64 
  402132:	c7 07 48 89 c7 90    	movl   $0x90c78948,(%rdi)
  402138:	c3                   	retq   

0000000000402139 <setval_275>:
  402139:	f3 0f 1e fa          	endbr64 
  40213d:	c7 07 58 92 90 c3    	movl   $0xc3909258,(%rdi)
  402143:	c3                   	retq   

0000000000402144 <setval_321>:
  402144:	f3 0f 1e fa          	endbr64 
  402148:	c7 07 f5 75 58 91    	movl   $0x915875f5,(%rdi)
  40214e:	c3                   	retq   

000000000040214f <mid_farm>:
  40214f:	f3 0f 1e fa          	endbr64 
  402153:	b8 01 00 00 00       	mov    $0x1,%eax
  402158:	c3                   	retq   

0000000000402159 <add_xy>:
  402159:	f3 0f 1e fa          	endbr64 
  40215d:	48 8d 04 37          	lea    (%rdi,%rsi,1),%rax
  402161:	c3                   	retq   

0000000000402162 <setval_120>:
  402162:	f3 0f 1e fa          	endbr64 
  402166:	c7 07 89 ce 48 c0    	movl   $0xc048ce89,(%rdi)
  40216c:	c3                   	retq   

000000000040216d <addval_153>:
  40216d:	f3 0f 1e fa          	endbr64 
  402171:	8d 87 48 8b e0 c3    	lea    -0x3c1f74b8(%rdi),%eax
  402177:	c3                   	retq   

0000000000402178 <setval_197>:
  402178:	f3 0f 1e fa          	endbr64 
  40217c:	c7 07 89 d1 90 c1    	movl   $0xc190d189,(%rdi)
  402182:	c3                   	retq   

0000000000402183 <getval_334>:
  402183:	f3 0f 1e fa          	endbr64 
  402187:	b8 89 ce 20 db       	mov    $0xdb20ce89,%eax
  40218c:	c3                   	retq   

000000000040218d <getval_297>:
  40218d:	f3 0f 1e fa          	endbr64 
  402191:	b8 89 d1 84 c9       	mov    $0xc984d189,%eax
  402196:	c3                   	retq   

0000000000402197 <getval_356>:
  402197:	f3 0f 1e fa          	endbr64 
  40219b:	b8 89 ce 30 db       	mov    $0xdb30ce89,%eax
  4021a0:	c3                   	retq   

00000000004021a1 <getval_250>:
  4021a1:	f3 0f 1e fa          	endbr64 
  4021a5:	b8 82 89 c2 c3       	mov    $0xc3c28982,%eax
  4021aa:	c3                   	retq   

00000000004021ab <addval_390>:
  4021ab:	f3 0f 1e fa          	endbr64 
  4021af:	8d 87 89 d1 90 c1    	lea    -0x3e6f2e77(%rdi),%eax
  4021b5:	c3                   	retq   

00000000004021b6 <addval_208>:
  4021b6:	f3 0f 1e fa          	endbr64 
  4021ba:	8d 87 89 d1 28 db    	lea    -0x24d72e77(%rdi),%eax
  4021c0:	c3                   	retq   

00000000004021c1 <getval_253>:
  4021c1:	f3 0f 1e fa          	endbr64 
  4021c5:	b8 19 8b ce 90       	mov    $0x90ce8b19,%eax
  4021ca:	c3                   	retq   

00000000004021cb <setval_309>:
  4021cb:	f3 0f 1e fa          	endbr64 
  4021cf:	c7 07 89 ce 94 d2    	movl   $0xd294ce89,(%rdi)
  4021d5:	c3                   	retq   

00000000004021d6 <setval_217>:
  4021d6:	f3 0f 1e fa          	endbr64 
  4021da:	c7 07 99 c2 20 c0    	movl   $0xc020c299,(%rdi)
  4021e0:	c3                   	retq   

00000000004021e1 <setval_189>:
  4021e1:	f3 0f 1e fa          	endbr64 
  4021e5:	c7 07 48 89 e0 c1    	movl   $0xc1e08948,(%rdi)
  4021eb:	c3                   	retq   

00000000004021ec <getval_169>:
  4021ec:	f3 0f 1e fa          	endbr64 
  4021f0:	b8 c9 c2 20 d2       	mov    $0xd220c2c9,%eax
  4021f5:	c3                   	retq   

00000000004021f6 <setval_473>:
  4021f6:	f3 0f 1e fa          	endbr64 
  4021fa:	c7 07 89 c2 28 db    	movl   $0xdb28c289,(%rdi)
  402200:	c3                   	retq   

0000000000402201 <addval_288>:
  402201:	f3 0f 1e fa          	endbr64 
  402205:	8d 87 99 d1 08 c9    	lea    -0x36f72e67(%rdi),%eax
  40220b:	c3                   	retq   

000000000040220c <setval_440>:
  40220c:	f3 0f 1e fa          	endbr64 
  402210:	c7 07 89 c2 91 c3    	movl   $0xc391c289,(%rdi)
  402216:	c3                   	retq   

0000000000402217 <addval_462>:
  402217:	f3 0f 1e fa          	endbr64 
  40221b:	8d 87 60 80 89 d1    	lea    -0x2e767fa0(%rdi),%eax
  402221:	c3                   	retq   

0000000000402222 <getval_472>:
  402222:	f3 0f 1e fa          	endbr64 
  402226:	b8 89 d1 28 db       	mov    $0xdb28d189,%eax
  40222b:	c3                   	retq   

000000000040222c <getval_259>:
  40222c:	f3 0f 1e fa          	endbr64 
  402230:	b8 89 c2 00 c9       	mov    $0xc900c289,%eax
  402235:	c3                   	retq   

0000000000402236 <setval_115>:
  402236:	f3 0f 1e fa          	endbr64 
  40223a:	c7 07 81 c2 84 c0    	movl   $0xc084c281,(%rdi)
  402240:	c3                   	retq   

0000000000402241 <setval_204>:
  402241:	f3 0f 1e fa          	endbr64 
  402245:	c7 07 48 89 e0 c7    	movl   $0xc7e08948,(%rdi)
  40224b:	c3                   	retq   

000000000040224c <getval_482>:
  40224c:	f3 0f 1e fa          	endbr64 
  402250:	b8 bf 89 ce c1       	mov    $0xc1ce89bf,%eax
  402255:	c3                   	retq   

0000000000402256 <addval_221>:
  402256:	f3 0f 1e fa          	endbr64 
  40225a:	8d 87 40 89 e0 c3    	lea    -0x3c1f76c0(%rdi),%eax
  402260:	c3                   	retq   

0000000000402261 <getval_105>:
  402261:	f3 0f 1e fa          	endbr64 
  402265:	b8 48 89 e0 c3       	mov    $0xc3e08948,%eax
  40226a:	c3                   	retq   

000000000040226b <getval_151>:
  40226b:	f3 0f 1e fa          	endbr64 
  40226f:	b8 81 d1 90 90       	mov    $0x9090d181,%eax
  402274:	c3                   	retq   

0000000000402275 <addval_475>:
  402275:	f3 0f 1e fa          	endbr64 
  402279:	8d 87 1a 48 89 e0    	lea    -0x1f76b7e6(%rdi),%eax
  40227f:	c3                   	retq   

0000000000402280 <getval_164>:
  402280:	f3 0f 1e fa          	endbr64 
  402284:	b8 89 ce 94 d2       	mov    $0xd294ce89,%eax
  402289:	c3                   	retq   

000000000040228a <setval_319>:
  40228a:	f3 0f 1e fa          	endbr64 
  40228e:	c7 07 48 8d e0 c3    	movl   $0xc3e08d48,(%rdi)
  402294:	c3                   	retq   

0000000000402295 <getval_470>:
  402295:	f3 0f 1e fa          	endbr64 
  402299:	b8 48 89 e0 92       	mov    $0x92e08948,%eax
  40229e:	c3                   	retq   

000000000040229f <addval_124>:
  40229f:	f3 0f 1e fa          	endbr64 
  4022a3:	8d 87 09 b2 89 ce    	lea    -0x31764df7(%rdi),%eax
  4022a9:	c3                   	retq   

00000000004022aa <addval_157>:
  4022aa:	f3 0f 1e fa          	endbr64 
  4022ae:	8d 87 89 c2 84 db    	lea    -0x247b3d77(%rdi),%eax
  4022b4:	c3                   	retq   

00000000004022b5 <end_farm>:
  4022b5:	f3 0f 1e fa          	endbr64 
  4022b9:	b8 01 00 00 00       	mov    $0x1,%eax
  4022be:	c3                   	retq   

00000000004022bf <save_char>:
  4022bf:	8b 05 5f 5e 00 00    	mov    0x5e5f(%rip),%eax        # 408124 <gets_cnt>
  4022c5:	3d ff 03 00 00       	cmp    $0x3ff,%eax
  4022ca:	7f 4a                	jg     402316 <save_char+0x57>
  4022cc:	89 f9                	mov    %edi,%ecx
  4022ce:	c0 e9 04             	shr    $0x4,%cl
  4022d1:	8d 14 40             	lea    (%rax,%rax,2),%edx
  4022d4:	4c 8d 05 05 24 00 00 	lea    0x2405(%rip),%r8        # 4046e0 <trans_char>
  4022db:	83 e1 0f             	and    $0xf,%ecx
  4022de:	45 0f b6 0c 08       	movzbl (%r8,%rcx,1),%r9d
  4022e3:	48 8d 0d 36 52 00 00 	lea    0x5236(%rip),%rcx        # 407520 <gets_buf>
  4022ea:	48 63 f2             	movslq %edx,%rsi
  4022ed:	44 88 0c 31          	mov    %r9b,(%rcx,%rsi,1)
  4022f1:	8d 72 01             	lea    0x1(%rdx),%esi
  4022f4:	83 e7 0f             	and    $0xf,%edi
  4022f7:	41 0f b6 3c 38       	movzbl (%r8,%rdi,1),%edi
  4022fc:	48 63 f6             	movslq %esi,%rsi
  4022ff:	40 88 3c 31          	mov    %dil,(%rcx,%rsi,1)
  402303:	83 c2 02             	add    $0x2,%edx
  402306:	48 63 d2             	movslq %edx,%rdx
  402309:	c6 04 11 20          	movb   $0x20,(%rcx,%rdx,1)
  40230d:	83 c0 01             	add    $0x1,%eax
  402310:	89 05 0e 5e 00 00    	mov    %eax,0x5e0e(%rip)        # 408124 <gets_cnt>
  402316:	c3                   	retq   

0000000000402317 <save_term>:
  402317:	8b 05 07 5e 00 00    	mov    0x5e07(%rip),%eax        # 408124 <gets_cnt>
  40231d:	8d 04 40             	lea    (%rax,%rax,2),%eax
  402320:	48 98                	cltq   
  402322:	48 8d 15 f7 51 00 00 	lea    0x51f7(%rip),%rdx        # 407520 <gets_buf>
  402329:	c6 04 02 00          	movb   $0x0,(%rdx,%rax,1)
  40232d:	c3                   	retq   

000000000040232e <check_fail>:
  40232e:	50                   	push   %rax
  40232f:	58                   	pop    %rax
  402330:	48 83 ec 08          	sub    $0x8,%rsp
  402334:	0f be 15 ed 5d 00 00 	movsbl 0x5ded(%rip),%edx        # 408128 <target_prefix>
  40233b:	4c 8d 05 de 51 00 00 	lea    0x51de(%rip),%r8        # 407520 <gets_buf>
  402342:	8b 0d b0 51 00 00    	mov    0x51b0(%rip),%ecx        # 4074f8 <check_level>
  402348:	48 8d 35 94 20 00 00 	lea    0x2094(%rip),%rsi        # 4043e3 <_IO_stdin_used+0x3e3>
  40234f:	bf 01 00 00 00       	mov    $0x1,%edi
  402354:	b8 00 00 00 00       	mov    $0x0,%eax
  402359:	e8 42 f0 ff ff       	callq  4013a0 <__printf_chk@plt>
  40235e:	bf 01 00 00 00       	mov    $0x1,%edi
  402363:	e8 88 f0 ff ff       	callq  4013f0 <exit@plt>

0000000000402368 <Gets>:
  402368:	41 54                	push   %r12
  40236a:	55                   	push   %rbp
  40236b:	53                   	push   %rbx
  40236c:	49 89 fc             	mov    %rdi,%r12
  40236f:	c7 05 ab 5d 00 00 00 	movl   $0x0,0x5dab(%rip)        # 408124 <gets_cnt>
  402376:	00 00 00 
  402379:	48 89 fb             	mov    %rdi,%rbx
  40237c:	48 8b 3d 6d 51 00 00 	mov    0x516d(%rip),%rdi        # 4074f0 <infile>
  402383:	e8 98 f0 ff ff       	callq  401420 <getc@plt>
  402388:	83 f8 ff             	cmp    $0xffffffff,%eax
  40238b:	74 18                	je     4023a5 <Gets+0x3d>
  40238d:	83 f8 0a             	cmp    $0xa,%eax
  402390:	74 13                	je     4023a5 <Gets+0x3d>
  402392:	48 8d 6b 01          	lea    0x1(%rbx),%rbp
  402396:	88 03                	mov    %al,(%rbx)
  402398:	0f b6 f8             	movzbl %al,%edi
  40239b:	e8 1f ff ff ff       	callq  4022bf <save_char>
  4023a0:	48 89 eb             	mov    %rbp,%rbx
  4023a3:	eb d7                	jmp    40237c <Gets+0x14>
  4023a5:	c6 03 00             	movb   $0x0,(%rbx)
  4023a8:	b8 00 00 00 00       	mov    $0x0,%eax
  4023ad:	e8 65 ff ff ff       	callq  402317 <save_term>
  4023b2:	4c 89 e0             	mov    %r12,%rax
  4023b5:	5b                   	pop    %rbx
  4023b6:	5d                   	pop    %rbp
  4023b7:	41 5c                	pop    %r12
  4023b9:	c3                   	retq   

00000000004023ba <notify_server>:
  4023ba:	55                   	push   %rbp
  4023bb:	53                   	push   %rbx
  4023bc:	4c 8d 9c 24 00 c0 ff 	lea    -0x4000(%rsp),%r11
  4023c3:	ff 
  4023c4:	48 81 ec 00 10 00 00 	sub    $0x1000,%rsp
  4023cb:	48 83 0c 24 00       	orq    $0x0,(%rsp)
  4023d0:	4c 39 dc             	cmp    %r11,%rsp
  4023d3:	75 ef                	jne    4023c4 <notify_server+0xa>
  4023d5:	48 83 ec 18          	sub    $0x18,%rsp
  4023d9:	64 48 8b 04 25 28 00 	mov    %fs:0x28,%rax
  4023e0:	00 00 
  4023e2:	48 89 84 24 08 40 00 	mov    %rax,0x4008(%rsp)
  4023e9:	00 
  4023ea:	31 c0                	xor    %eax,%eax
  4023ec:	83 3d 15 51 00 00 00 	cmpl   $0x0,0x5115(%rip)        # 407508 <is_checker>
  4023f3:	0f 85 26 01 00 00    	jne    40251f <notify_server+0x165>
  4023f9:	89 fb                	mov    %edi,%ebx
  4023fb:	81 3d 1f 5d 00 00 9c 	cmpl   $0x1f9c,0x5d1f(%rip)        # 408124 <gets_cnt>
  402402:	1f 00 00 
  402405:	7f 18                	jg     40241f <notify_server+0x65>
  402407:	0f be 05 1a 5d 00 00 	movsbl 0x5d1a(%rip),%eax        # 408128 <target_prefix>
  40240e:	83 3d 73 50 00 00 00 	cmpl   $0x0,0x5073(%rip)        # 407488 <notify>
  402415:	74 23                	je     40243a <notify_server+0x80>
  402417:	8b 15 e3 50 00 00    	mov    0x50e3(%rip),%edx        # 407500 <authkey>
  40241d:	eb 20                	jmp    40243f <notify_server+0x85>
  40241f:	48 8d 35 f2 20 00 00 	lea    0x20f2(%rip),%rsi        # 404518 <_IO_stdin_used+0x518>
  402426:	bf 01 00 00 00       	mov    $0x1,%edi
  40242b:	e8 70 ef ff ff       	callq  4013a0 <__printf_chk@plt>
  402430:	bf 01 00 00 00       	mov    $0x1,%edi
  402435:	e8 b6 ef ff ff       	callq  4013f0 <exit@plt>
  40243a:	ba ff ff ff ff       	mov    $0xffffffff,%edx
  40243f:	85 db                	test   %ebx,%ebx
  402441:	0f 84 98 00 00 00    	je     4024df <notify_server+0x125>
  402447:	48 8d 2d b0 1f 00 00 	lea    0x1fb0(%rip),%rbp        # 4043fe <_IO_stdin_used+0x3fe>
  40244e:	48 89 e7             	mov    %rsp,%rdi
  402451:	48 8d 0d c8 50 00 00 	lea    0x50c8(%rip),%rcx        # 407520 <gets_buf>
  402458:	51                   	push   %rcx
  402459:	56                   	push   %rsi
  40245a:	50                   	push   %rax
  40245b:	52                   	push   %rdx
  40245c:	49 89 e9             	mov    %rbp,%r9
  40245f:	44 8b 05 ca 4c 00 00 	mov    0x4cca(%rip),%r8d        # 407130 <target_id>
  402466:	48 8d 0d 96 1f 00 00 	lea    0x1f96(%rip),%rcx        # 404403 <_IO_stdin_used+0x403>
  40246d:	ba 00 20 00 00       	mov    $0x2000,%edx
  402472:	be 01 00 00 00       	mov    $0x1,%esi
  402477:	b8 00 00 00 00       	mov    $0x0,%eax
  40247c:	e8 af ef ff ff       	callq  401430 <__sprintf_chk@plt>
  402481:	48 83 c4 20          	add    $0x20,%rsp
  402485:	83 3d fc 4f 00 00 00 	cmpl   $0x0,0x4ffc(%rip)        # 407488 <notify>
  40248c:	0f 84 ae 00 00 00    	je     402540 <notify_server+0x186>
  402492:	85 db                	test   %ebx,%ebx
  402494:	74 7d                	je     402513 <notify_server+0x159>
  402496:	48 89 e1             	mov    %rsp,%rcx
  402499:	4c 8d 8c 24 00 20 00 	lea    0x2000(%rsp),%r9
  4024a0:	00 
  4024a1:	41 b8 00 00 00 00    	mov    $0x0,%r8d
  4024a7:	48 8b 15 9a 4c 00 00 	mov    0x4c9a(%rip),%rdx        # 407148 <lab>
  4024ae:	48 8b 35 9b 4c 00 00 	mov    0x4c9b(%rip),%rsi        # 407150 <course>
  4024b5:	48 8b 3d 84 4c 00 00 	mov    0x4c84(%rip),%rdi        # 407140 <user_id>
  4024bc:	e8 a9 11 00 00       	callq  40366a <driver_post>
  4024c1:	85 c0                	test   %eax,%eax
  4024c3:	78 26                	js     4024eb <notify_server+0x131>
  4024c5:	48 8d 3d 7c 20 00 00 	lea    0x207c(%rip),%rdi        # 404548 <_IO_stdin_used+0x548>
  4024cc:	e8 bf ed ff ff       	callq  401290 <puts@plt>
  4024d1:	48 8d 3d 53 1f 00 00 	lea    0x1f53(%rip),%rdi        # 40442b <_IO_stdin_used+0x42b>
  4024d8:	e8 b3 ed ff ff       	callq  401290 <puts@plt>
  4024dd:	eb 40                	jmp    40251f <notify_server+0x165>
  4024df:	48 8d 2d 13 1f 00 00 	lea    0x1f13(%rip),%rbp        # 4043f9 <_IO_stdin_used+0x3f9>
  4024e6:	e9 63 ff ff ff       	jmpq   40244e <notify_server+0x94>
  4024eb:	48 8d 94 24 00 20 00 	lea    0x2000(%rsp),%rdx
  4024f2:	00 
  4024f3:	48 8d 35 25 1f 00 00 	lea    0x1f25(%rip),%rsi        # 40441f <_IO_stdin_used+0x41f>
  4024fa:	bf 01 00 00 00       	mov    $0x1,%edi
  4024ff:	b8 00 00 00 00       	mov    $0x0,%eax
  402504:	e8 97 ee ff ff       	callq  4013a0 <__printf_chk@plt>
  402509:	bf 01 00 00 00       	mov    $0x1,%edi
  40250e:	e8 dd ee ff ff       	callq  4013f0 <exit@plt>
  402513:	48 8d 3d 1b 1f 00 00 	lea    0x1f1b(%rip),%rdi        # 404435 <_IO_stdin_used+0x435>
  40251a:	e8 71 ed ff ff       	callq  401290 <puts@plt>
  40251f:	48 8b 84 24 08 40 00 	mov    0x4008(%rsp),%rax
  402526:	00 
  402527:	64 48 33 04 25 28 00 	xor    %fs:0x28,%rax
  40252e:	00 00 
  402530:	0f 85 98 00 00 00    	jne    4025ce <notify_server+0x214>
  402536:	48 81 c4 18 40 00 00 	add    $0x4018,%rsp
  40253d:	5b                   	pop    %rbx
  40253e:	5d                   	pop    %rbp
  40253f:	c3                   	retq   
  402540:	48 89 ea             	mov    %rbp,%rdx
  402543:	48 8d 35 36 20 00 00 	lea    0x2036(%rip),%rsi        # 404580 <_IO_stdin_used+0x580>
  40254a:	bf 01 00 00 00       	mov    $0x1,%edi
  40254f:	b8 00 00 00 00       	mov    $0x0,%eax
  402554:	e8 47 ee ff ff       	callq  4013a0 <__printf_chk@plt>
  402559:	48 8b 15 e0 4b 00 00 	mov    0x4be0(%rip),%rdx        # 407140 <user_id>
  402560:	48 8d 35 d5 1e 00 00 	lea    0x1ed5(%rip),%rsi        # 40443c <_IO_stdin_used+0x43c>
  402567:	bf 01 00 00 00       	mov    $0x1,%edi
  40256c:	b8 00 00 00 00       	mov    $0x0,%eax
  402571:	e8 2a ee ff ff       	callq  4013a0 <__printf_chk@plt>
  402576:	48 8b 15 d3 4b 00 00 	mov    0x4bd3(%rip),%rdx        # 407150 <course>
  40257d:	48 8d 35 c5 1e 00 00 	lea    0x1ec5(%rip),%rsi        # 404449 <_IO_stdin_used+0x449>
  402584:	bf 01 00 00 00       	mov    $0x1,%edi
  402589:	b8 00 00 00 00       	mov    $0x0,%eax
  40258e:	e8 0d ee ff ff       	callq  4013a0 <__printf_chk@plt>
  402593:	48 8b 15 ae 4b 00 00 	mov    0x4bae(%rip),%rdx        # 407148 <lab>
  40259a:	48 8d 35 b4 1e 00 00 	lea    0x1eb4(%rip),%rsi        # 404455 <_IO_stdin_used+0x455>
  4025a1:	bf 01 00 00 00       	mov    $0x1,%edi
  4025a6:	b8 00 00 00 00       	mov    $0x0,%eax
  4025ab:	e8 f0 ed ff ff       	callq  4013a0 <__printf_chk@plt>
  4025b0:	48 89 e2             	mov    %rsp,%rdx
  4025b3:	48 8d 35 a4 1e 00 00 	lea    0x1ea4(%rip),%rsi        # 40445e <_IO_stdin_used+0x45e>
  4025ba:	bf 01 00 00 00       	mov    $0x1,%edi
  4025bf:	b8 00 00 00 00       	mov    $0x0,%eax
  4025c4:	e8 d7 ed ff ff       	callq  4013a0 <__printf_chk@plt>
  4025c9:	e9 51 ff ff ff       	jmpq   40251f <notify_server+0x165>
  4025ce:	e8 dd ec ff ff       	callq  4012b0 <__stack_chk_fail@plt>

00000000004025d3 <validate>:
  4025d3:	53                   	push   %rbx
  4025d4:	89 fb                	mov    %edi,%ebx
  4025d6:	83 3d 2b 4f 00 00 00 	cmpl   $0x0,0x4f2b(%rip)        # 407508 <is_checker>
  4025dd:	74 72                	je     402651 <validate+0x7e>
  4025df:	39 3d 17 4f 00 00    	cmp    %edi,0x4f17(%rip)        # 4074fc <vlevel>
  4025e5:	75 32                	jne    402619 <validate+0x46>
  4025e7:	8b 15 0b 4f 00 00    	mov    0x4f0b(%rip),%edx        # 4074f8 <check_level>
  4025ed:	39 fa                	cmp    %edi,%edx
  4025ef:	75 3e                	jne    40262f <validate+0x5c>
  4025f1:	0f be 15 30 5b 00 00 	movsbl 0x5b30(%rip),%edx        # 408128 <target_prefix>
  4025f8:	4c 8d 05 21 4f 00 00 	lea    0x4f21(%rip),%r8        # 407520 <gets_buf>
  4025ff:	89 f9                	mov    %edi,%ecx
  402601:	48 8d 35 80 1e 00 00 	lea    0x1e80(%rip),%rsi        # 404488 <_IO_stdin_used+0x488>
  402608:	bf 01 00 00 00       	mov    $0x1,%edi
  40260d:	b8 00 00 00 00       	mov    $0x0,%eax
  402612:	e8 89 ed ff ff       	callq  4013a0 <__printf_chk@plt>
  402617:	5b                   	pop    %rbx
  402618:	c3                   	retq   
  402619:	48 8d 3d 4a 1e 00 00 	lea    0x1e4a(%rip),%rdi        # 40446a <_IO_stdin_used+0x46a>
  402620:	e8 6b ec ff ff       	callq  401290 <puts@plt>
  402625:	b8 00 00 00 00       	mov    $0x0,%eax
  40262a:	e8 ff fc ff ff       	callq  40232e <check_fail>
  40262f:	89 f9                	mov    %edi,%ecx
  402631:	48 8d 35 70 1f 00 00 	lea    0x1f70(%rip),%rsi        # 4045a8 <_IO_stdin_used+0x5a8>
  402638:	bf 01 00 00 00       	mov    $0x1,%edi
  40263d:	b8 00 00 00 00       	mov    $0x0,%eax
  402642:	e8 59 ed ff ff       	callq  4013a0 <__printf_chk@plt>
  402647:	b8 00 00 00 00       	mov    $0x0,%eax
  40264c:	e8 dd fc ff ff       	callq  40232e <check_fail>
  402651:	39 3d a5 4e 00 00    	cmp    %edi,0x4ea5(%rip)        # 4074fc <vlevel>
  402657:	74 1a                	je     402673 <validate+0xa0>
  402659:	48 8d 3d 0a 1e 00 00 	lea    0x1e0a(%rip),%rdi        # 40446a <_IO_stdin_used+0x46a>
  402660:	e8 2b ec ff ff       	callq  401290 <puts@plt>
  402665:	89 de                	mov    %ebx,%esi
  402667:	bf 00 00 00 00       	mov    $0x0,%edi
  40266c:	e8 49 fd ff ff       	callq  4023ba <notify_server>
  402671:	eb a4                	jmp    402617 <validate+0x44>
  402673:	0f be 0d ae 5a 00 00 	movsbl 0x5aae(%rip),%ecx        # 408128 <target_prefix>
  40267a:	89 fa                	mov    %edi,%edx
  40267c:	48 8d 35 4d 1f 00 00 	lea    0x1f4d(%rip),%rsi        # 4045d0 <_IO_stdin_used+0x5d0>
  402683:	bf 01 00 00 00       	mov    $0x1,%edi
  402688:	b8 00 00 00 00       	mov    $0x0,%eax
  40268d:	e8 0e ed ff ff       	callq  4013a0 <__printf_chk@plt>
  402692:	89 de                	mov    %ebx,%esi
  402694:	bf 01 00 00 00       	mov    $0x1,%edi
  402699:	e8 1c fd ff ff       	callq  4023ba <notify_server>
  40269e:	e9 74 ff ff ff       	jmpq   402617 <validate+0x44>

00000000004026a3 <fail>:
  4026a3:	48 83 ec 08          	sub    $0x8,%rsp
  4026a7:	83 3d 5a 4e 00 00 00 	cmpl   $0x0,0x4e5a(%rip)        # 407508 <is_checker>
  4026ae:	75 11                	jne    4026c1 <fail+0x1e>
  4026b0:	89 fe                	mov    %edi,%esi
  4026b2:	bf 00 00 00 00       	mov    $0x0,%edi
  4026b7:	e8 fe fc ff ff       	callq  4023ba <notify_server>
  4026bc:	48 83 c4 08          	add    $0x8,%rsp
  4026c0:	c3                   	retq   
  4026c1:	b8 00 00 00 00       	mov    $0x0,%eax
  4026c6:	e8 63 fc ff ff       	callq  40232e <check_fail>

00000000004026cb <bushandler>:
  4026cb:	50                   	push   %rax
  4026cc:	58                   	pop    %rax
  4026cd:	48 83 ec 08          	sub    $0x8,%rsp
  4026d1:	83 3d 30 4e 00 00 00 	cmpl   $0x0,0x4e30(%rip)        # 407508 <is_checker>
  4026d8:	74 16                	je     4026f0 <bushandler+0x25>
  4026da:	48 8d 3d bc 1d 00 00 	lea    0x1dbc(%rip),%rdi        # 40449d <_IO_stdin_used+0x49d>
  4026e1:	e8 aa eb ff ff       	callq  401290 <puts@plt>
  4026e6:	b8 00 00 00 00       	mov    $0x0,%eax
  4026eb:	e8 3e fc ff ff       	callq  40232e <check_fail>
  4026f0:	48 8d 3d 11 1f 00 00 	lea    0x1f11(%rip),%rdi        # 404608 <_IO_stdin_used+0x608>
  4026f7:	e8 94 eb ff ff       	callq  401290 <puts@plt>
  4026fc:	48 8d 3d a4 1d 00 00 	lea    0x1da4(%rip),%rdi        # 4044a7 <_IO_stdin_used+0x4a7>
  402703:	e8 88 eb ff ff       	callq  401290 <puts@plt>
  402708:	be 00 00 00 00       	mov    $0x0,%esi
  40270d:	bf 00 00 00 00       	mov    $0x0,%edi
  402712:	e8 a3 fc ff ff       	callq  4023ba <notify_server>
  402717:	bf 01 00 00 00       	mov    $0x1,%edi
  40271c:	e8 cf ec ff ff       	callq  4013f0 <exit@plt>

0000000000402721 <seghandler>:
  402721:	50                   	push   %rax
  402722:	58                   	pop    %rax
  402723:	48 83 ec 08          	sub    $0x8,%rsp
  402727:	83 3d da 4d 00 00 00 	cmpl   $0x0,0x4dda(%rip)        # 407508 <is_checker>
  40272e:	74 16                	je     402746 <seghandler+0x25>
  402730:	48 8d 3d 86 1d 00 00 	lea    0x1d86(%rip),%rdi        # 4044bd <_IO_stdin_used+0x4bd>
  402737:	e8 54 eb ff ff       	callq  401290 <puts@plt>
  40273c:	b8 00 00 00 00       	mov    $0x0,%eax
  402741:	e8 e8 fb ff ff       	callq  40232e <check_fail>
  402746:	48 8d 3d db 1e 00 00 	lea    0x1edb(%rip),%rdi        # 404628 <_IO_stdin_used+0x628>
  40274d:	e8 3e eb ff ff       	callq  401290 <puts@plt>
  402752:	48 8d 3d 4e 1d 00 00 	lea    0x1d4e(%rip),%rdi        # 4044a7 <_IO_stdin_used+0x4a7>
  402759:	e8 32 eb ff ff       	callq  401290 <puts@plt>
  40275e:	be 00 00 00 00       	mov    $0x0,%esi
  402763:	bf 00 00 00 00       	mov    $0x0,%edi
  402768:	e8 4d fc ff ff       	callq  4023ba <notify_server>
  40276d:	bf 01 00 00 00       	mov    $0x1,%edi
  402772:	e8 79 ec ff ff       	callq  4013f0 <exit@plt>

0000000000402777 <illegalhandler>:
  402777:	50                   	push   %rax
  402778:	58                   	pop    %rax
  402779:	48 83 ec 08          	sub    $0x8,%rsp
  40277d:	83 3d 84 4d 00 00 00 	cmpl   $0x0,0x4d84(%rip)        # 407508 <is_checker>
  402784:	74 16                	je     40279c <illegalhandler+0x25>
  402786:	48 8d 3d 43 1d 00 00 	lea    0x1d43(%rip),%rdi        # 4044d0 <_IO_stdin_used+0x4d0>
  40278d:	e8 fe ea ff ff       	callq  401290 <puts@plt>
  402792:	b8 00 00 00 00       	mov    $0x0,%eax
  402797:	e8 92 fb ff ff       	callq  40232e <check_fail>
  40279c:	48 8d 3d ad 1e 00 00 	lea    0x1ead(%rip),%rdi        # 404650 <_IO_stdin_used+0x650>
  4027a3:	e8 e8 ea ff ff       	callq  401290 <puts@plt>
  4027a8:	48 8d 3d f8 1c 00 00 	lea    0x1cf8(%rip),%rdi        # 4044a7 <_IO_stdin_used+0x4a7>
  4027af:	e8 dc ea ff ff       	callq  401290 <puts@plt>
  4027b4:	be 00 00 00 00       	mov    $0x0,%esi
  4027b9:	bf 00 00 00 00       	mov    $0x0,%edi
  4027be:	e8 f7 fb ff ff       	callq  4023ba <notify_server>
  4027c3:	bf 01 00 00 00       	mov    $0x1,%edi
  4027c8:	e8 23 ec ff ff       	callq  4013f0 <exit@plt>

00000000004027cd <sigalrmhandler>:
  4027cd:	50                   	push   %rax
  4027ce:	58                   	pop    %rax
  4027cf:	48 83 ec 08          	sub    $0x8,%rsp
  4027d3:	83 3d 2e 4d 00 00 00 	cmpl   $0x0,0x4d2e(%rip)        # 407508 <is_checker>
  4027da:	74 16                	je     4027f2 <sigalrmhandler+0x25>
  4027dc:	48 8d 3d 01 1d 00 00 	lea    0x1d01(%rip),%rdi        # 4044e4 <_IO_stdin_used+0x4e4>
  4027e3:	e8 a8 ea ff ff       	callq  401290 <puts@plt>
  4027e8:	b8 00 00 00 00       	mov    $0x0,%eax
  4027ed:	e8 3c fb ff ff       	callq  40232e <check_fail>
  4027f2:	ba 05 00 00 00       	mov    $0x5,%edx
  4027f7:	48 8d 35 82 1e 00 00 	lea    0x1e82(%rip),%rsi        # 404680 <_IO_stdin_used+0x680>
  4027fe:	bf 01 00 00 00       	mov    $0x1,%edi
  402803:	b8 00 00 00 00       	mov    $0x0,%eax
  402808:	e8 93 eb ff ff       	callq  4013a0 <__printf_chk@plt>
  40280d:	be 00 00 00 00       	mov    $0x0,%esi
  402812:	bf 00 00 00 00       	mov    $0x0,%edi
  402817:	e8 9e fb ff ff       	callq  4023ba <notify_server>
  40281c:	bf 01 00 00 00       	mov    $0x1,%edi
  402821:	e8 ca eb ff ff       	callq  4013f0 <exit@plt>

0000000000402826 <launch>:
  402826:	55                   	push   %rbp
  402827:	48 89 e5             	mov    %rsp,%rbp
  40282a:	48 83 ec 10          	sub    $0x10,%rsp
  40282e:	48 89 fa             	mov    %rdi,%rdx
  402831:	64 48 8b 04 25 28 00 	mov    %fs:0x28,%rax
  402838:	00 00 
  40283a:	48 89 45 f8          	mov    %rax,-0x8(%rbp)
  40283e:	31 c0                	xor    %eax,%eax
  402840:	48 8d 47 17          	lea    0x17(%rdi),%rax
  402844:	48 89 c1             	mov    %rax,%rcx
  402847:	48 83 e1 f0          	and    $0xfffffffffffffff0,%rcx
  40284b:	48 25 00 f0 ff ff    	and    $0xfffffffffffff000,%rax
  402851:	48 89 e6             	mov    %rsp,%rsi
  402854:	48 29 c6             	sub    %rax,%rsi
  402857:	48 89 f0             	mov    %rsi,%rax
  40285a:	48 39 c4             	cmp    %rax,%rsp
  40285d:	74 12                	je     402871 <launch+0x4b>
  40285f:	48 81 ec 00 10 00 00 	sub    $0x1000,%rsp
  402866:	48 83 8c 24 f8 0f 00 	orq    $0x0,0xff8(%rsp)
  40286d:	00 00 
  40286f:	eb e9                	jmp    40285a <launch+0x34>
  402871:	48 89 c8             	mov    %rcx,%rax
  402874:	25 ff 0f 00 00       	and    $0xfff,%eax
  402879:	48 29 c4             	sub    %rax,%rsp
  40287c:	48 85 c0             	test   %rax,%rax
  40287f:	74 06                	je     402887 <launch+0x61>
  402881:	48 83 4c 04 f8 00    	orq    $0x0,-0x8(%rsp,%rax,1)
  402887:	48 8d 7c 24 0f       	lea    0xf(%rsp),%rdi
  40288c:	48 83 e7 f0          	and    $0xfffffffffffffff0,%rdi
  402890:	be f4 00 00 00       	mov    $0xf4,%esi
  402895:	e8 36 ea ff ff       	callq  4012d0 <memset@plt>
  40289a:	48 8b 05 ff 4b 00 00 	mov    0x4bff(%rip),%rax        # 4074a0 <stdin@@GLIBC_2.2.5>
  4028a1:	48 39 05 48 4c 00 00 	cmp    %rax,0x4c48(%rip)        # 4074f0 <infile>
  4028a8:	74 3a                	je     4028e4 <launch+0xbe>
  4028aa:	c7 05 48 4c 00 00 00 	movl   $0x0,0x4c48(%rip)        # 4074fc <vlevel>
  4028b1:	00 00 00 
  4028b4:	b8 00 00 00 00       	mov    $0x0,%eax
  4028b9:	e8 04 f8 ff ff       	callq  4020c2 <test>
  4028be:	83 3d 43 4c 00 00 00 	cmpl   $0x0,0x4c43(%rip)        # 407508 <is_checker>
  4028c5:	75 35                	jne    4028fc <launch+0xd6>
  4028c7:	48 8d 3d 36 1c 00 00 	lea    0x1c36(%rip),%rdi        # 404504 <_IO_stdin_used+0x504>
  4028ce:	e8 bd e9 ff ff       	callq  401290 <puts@plt>
  4028d3:	48 8b 45 f8          	mov    -0x8(%rbp),%rax
  4028d7:	64 48 33 04 25 28 00 	xor    %fs:0x28,%rax
  4028de:	00 00 
  4028e0:	75 30                	jne    402912 <launch+0xec>
  4028e2:	c9                   	leaveq 
  4028e3:	c3                   	retq   
  4028e4:	48 8d 35 01 1c 00 00 	lea    0x1c01(%rip),%rsi        # 4044ec <_IO_stdin_used+0x4ec>
  4028eb:	bf 01 00 00 00       	mov    $0x1,%edi
  4028f0:	b8 00 00 00 00       	mov    $0x0,%eax
  4028f5:	e8 a6 ea ff ff       	callq  4013a0 <__printf_chk@plt>
  4028fa:	eb ae                	jmp    4028aa <launch+0x84>
  4028fc:	48 8d 3d f6 1b 00 00 	lea    0x1bf6(%rip),%rdi        # 4044f9 <_IO_stdin_used+0x4f9>
  402903:	e8 88 e9 ff ff       	callq  401290 <puts@plt>
  402908:	b8 00 00 00 00       	mov    $0x0,%eax
  40290d:	e8 1c fa ff ff       	callq  40232e <check_fail>
  402912:	e8 99 e9 ff ff       	callq  4012b0 <__stack_chk_fail@plt>

0000000000402917 <stable_launch>:
  402917:	53                   	push   %rbx
  402918:	48 89 3d c9 4b 00 00 	mov    %rdi,0x4bc9(%rip)        # 4074e8 <global_offset>
  40291f:	41 b9 00 00 00 00    	mov    $0x0,%r9d
  402925:	41 b8 00 00 00 00    	mov    $0x0,%r8d
  40292b:	b9 32 01 00 00       	mov    $0x132,%ecx
  402930:	ba 07 00 00 00       	mov    $0x7,%edx
  402935:	be 00 00 10 00       	mov    $0x100000,%esi
  40293a:	bf 00 60 58 55       	mov    $0x55586000,%edi
  40293f:	e8 7c e9 ff ff       	callq  4012c0 <mmap@plt>
  402944:	48 89 c3             	mov    %rax,%rbx
  402947:	48 3d 00 60 58 55    	cmp    $0x55586000,%rax
  40294d:	75 43                	jne    402992 <stable_launch+0x7b>
  40294f:	48 8d 90 f8 ff 0f 00 	lea    0xffff8(%rax),%rdx
  402956:	48 89 15 d3 57 00 00 	mov    %rdx,0x57d3(%rip)        # 408130 <stack_top>
  40295d:	48 89 e0             	mov    %rsp,%rax
  402960:	48 89 d4             	mov    %rdx,%rsp
  402963:	48 89 c2             	mov    %rax,%rdx
  402966:	48 89 15 73 4b 00 00 	mov    %rdx,0x4b73(%rip)        # 4074e0 <global_save_stack>
  40296d:	48 8b 3d 74 4b 00 00 	mov    0x4b74(%rip),%rdi        # 4074e8 <global_offset>
  402974:	e8 ad fe ff ff       	callq  402826 <launch>
  402979:	48 8b 05 60 4b 00 00 	mov    0x4b60(%rip),%rax        # 4074e0 <global_save_stack>
  402980:	48 89 c4             	mov    %rax,%rsp
  402983:	be 00 00 10 00       	mov    $0x100000,%esi
  402988:	48 89 df             	mov    %rbx,%rdi
  40298b:	e8 00 ea ff ff       	callq  401390 <munmap@plt>
  402990:	5b                   	pop    %rbx
  402991:	c3                   	retq   
  402992:	be 00 00 10 00       	mov    $0x100000,%esi
  402997:	48 89 c7             	mov    %rax,%rdi
  40299a:	e8 f1 e9 ff ff       	callq  401390 <munmap@plt>
  40299f:	b9 00 60 58 55       	mov    $0x55586000,%ecx
  4029a4:	48 8d 15 0d 1d 00 00 	lea    0x1d0d(%rip),%rdx        # 4046b8 <_IO_stdin_used+0x6b8>
  4029ab:	be 01 00 00 00       	mov    $0x1,%esi
  4029b0:	48 8b 3d 09 4b 00 00 	mov    0x4b09(%rip),%rdi        # 4074c0 <stderr@@GLIBC_2.2.5>
  4029b7:	b8 00 00 00 00       	mov    $0x0,%eax
  4029bc:	e8 4f ea ff ff       	callq  401410 <__fprintf_chk@plt>
  4029c1:	bf 01 00 00 00       	mov    $0x1,%edi
  4029c6:	e8 25 ea ff ff       	callq  4013f0 <exit@plt>

00000000004029cb <rio_readinitb>:
  4029cb:	89 37                	mov    %esi,(%rdi)
  4029cd:	c7 47 04 00 00 00 00 	movl   $0x0,0x4(%rdi)
  4029d4:	48 8d 47 10          	lea    0x10(%rdi),%rax
  4029d8:	48 89 47 08          	mov    %rax,0x8(%rdi)
  4029dc:	c3                   	retq   

00000000004029dd <sigalrm_handler>:
  4029dd:	50                   	push   %rax
  4029de:	58                   	pop    %rax
  4029df:	48 83 ec 08          	sub    $0x8,%rsp
  4029e3:	b9 00 00 00 00       	mov    $0x0,%ecx
  4029e8:	48 8d 15 01 1d 00 00 	lea    0x1d01(%rip),%rdx        # 4046f0 <trans_char+0x10>
  4029ef:	be 01 00 00 00       	mov    $0x1,%esi
  4029f4:	48 8b 3d c5 4a 00 00 	mov    0x4ac5(%rip),%rdi        # 4074c0 <stderr@@GLIBC_2.2.5>
  4029fb:	b8 00 00 00 00       	mov    $0x0,%eax
  402a00:	e8 0b ea ff ff       	callq  401410 <__fprintf_chk@plt>
  402a05:	bf 01 00 00 00       	mov    $0x1,%edi
  402a0a:	e8 e1 e9 ff ff       	callq  4013f0 <exit@plt>

0000000000402a0f <rio_writen>:
  402a0f:	41 55                	push   %r13
  402a11:	41 54                	push   %r12
  402a13:	55                   	push   %rbp
  402a14:	53                   	push   %rbx
  402a15:	48 83 ec 08          	sub    $0x8,%rsp
  402a19:	41 89 fc             	mov    %edi,%r12d
  402a1c:	48 89 f5             	mov    %rsi,%rbp
  402a1f:	49 89 d5             	mov    %rdx,%r13
  402a22:	48 89 d3             	mov    %rdx,%rbx
  402a25:	eb 06                	jmp    402a2d <rio_writen+0x1e>
  402a27:	48 29 c3             	sub    %rax,%rbx
  402a2a:	48 01 c5             	add    %rax,%rbp
  402a2d:	48 85 db             	test   %rbx,%rbx
  402a30:	74 24                	je     402a56 <rio_writen+0x47>
  402a32:	48 89 da             	mov    %rbx,%rdx
  402a35:	48 89 ee             	mov    %rbp,%rsi
  402a38:	44 89 e7             	mov    %r12d,%edi
  402a3b:	e8 60 e8 ff ff       	callq  4012a0 <write@plt>
  402a40:	48 85 c0             	test   %rax,%rax
  402a43:	7f e2                	jg     402a27 <rio_writen+0x18>
  402a45:	e8 06 e8 ff ff       	callq  401250 <__errno_location@plt>
  402a4a:	83 38 04             	cmpl   $0x4,(%rax)
  402a4d:	75 15                	jne    402a64 <rio_writen+0x55>
  402a4f:	b8 00 00 00 00       	mov    $0x0,%eax
  402a54:	eb d1                	jmp    402a27 <rio_writen+0x18>
  402a56:	4c 89 e8             	mov    %r13,%rax
  402a59:	48 83 c4 08          	add    $0x8,%rsp
  402a5d:	5b                   	pop    %rbx
  402a5e:	5d                   	pop    %rbp
  402a5f:	41 5c                	pop    %r12
  402a61:	41 5d                	pop    %r13
  402a63:	c3                   	retq   
  402a64:	48 c7 c0 ff ff ff ff 	mov    $0xffffffffffffffff,%rax
  402a6b:	eb ec                	jmp    402a59 <rio_writen+0x4a>

0000000000402a6d <rio_read>:
  402a6d:	41 55                	push   %r13
  402a6f:	41 54                	push   %r12
  402a71:	55                   	push   %rbp
  402a72:	53                   	push   %rbx
  402a73:	48 83 ec 08          	sub    $0x8,%rsp
  402a77:	48 89 fb             	mov    %rdi,%rbx
  402a7a:	49 89 f5             	mov    %rsi,%r13
  402a7d:	49 89 d4             	mov    %rdx,%r12
  402a80:	eb 17                	jmp    402a99 <rio_read+0x2c>
  402a82:	e8 c9 e7 ff ff       	callq  401250 <__errno_location@plt>
  402a87:	83 38 04             	cmpl   $0x4,(%rax)
  402a8a:	74 0d                	je     402a99 <rio_read+0x2c>
  402a8c:	48 c7 c0 ff ff ff ff 	mov    $0xffffffffffffffff,%rax
  402a93:	eb 54                	jmp    402ae9 <rio_read+0x7c>
  402a95:	48 89 6b 08          	mov    %rbp,0x8(%rbx)
  402a99:	8b 6b 04             	mov    0x4(%rbx),%ebp
  402a9c:	85 ed                	test   %ebp,%ebp
  402a9e:	7f 23                	jg     402ac3 <rio_read+0x56>
  402aa0:	48 8d 6b 10          	lea    0x10(%rbx),%rbp
  402aa4:	8b 3b                	mov    (%rbx),%edi
  402aa6:	ba 00 20 00 00       	mov    $0x2000,%edx
  402aab:	48 89 ee             	mov    %rbp,%rsi
  402aae:	e8 4d e8 ff ff       	callq  401300 <read@plt>
  402ab3:	89 43 04             	mov    %eax,0x4(%rbx)
  402ab6:	85 c0                	test   %eax,%eax
  402ab8:	78 c8                	js     402a82 <rio_read+0x15>
  402aba:	75 d9                	jne    402a95 <rio_read+0x28>
  402abc:	b8 00 00 00 00       	mov    $0x0,%eax
  402ac1:	eb 26                	jmp    402ae9 <rio_read+0x7c>
  402ac3:	89 e8                	mov    %ebp,%eax
  402ac5:	4c 39 e0             	cmp    %r12,%rax
  402ac8:	72 03                	jb     402acd <rio_read+0x60>
  402aca:	44 89 e5             	mov    %r12d,%ebp
  402acd:	4c 63 e5             	movslq %ebp,%r12
  402ad0:	48 8b 73 08          	mov    0x8(%rbx),%rsi
  402ad4:	4c 89 e2             	mov    %r12,%rdx
  402ad7:	4c 89 ef             	mov    %r13,%rdi
  402ada:	e8 71 e8 ff ff       	callq  401350 <memcpy@plt>
  402adf:	4c 01 63 08          	add    %r12,0x8(%rbx)
  402ae3:	29 6b 04             	sub    %ebp,0x4(%rbx)
  402ae6:	4c 89 e0             	mov    %r12,%rax
  402ae9:	48 83 c4 08          	add    $0x8,%rsp
  402aed:	5b                   	pop    %rbx
  402aee:	5d                   	pop    %rbp
  402aef:	41 5c                	pop    %r12
  402af1:	41 5d                	pop    %r13
  402af3:	c3                   	retq   

0000000000402af4 <rio_readlineb>:
  402af4:	41 55                	push   %r13
  402af6:	41 54                	push   %r12
  402af8:	55                   	push   %rbp
  402af9:	53                   	push   %rbx
  402afa:	48 83 ec 18          	sub    $0x18,%rsp
  402afe:	49 89 fd             	mov    %rdi,%r13
  402b01:	48 89 f5             	mov    %rsi,%rbp
  402b04:	49 89 d4             	mov    %rdx,%r12
  402b07:	64 48 8b 04 25 28 00 	mov    %fs:0x28,%rax
  402b0e:	00 00 
  402b10:	48 89 44 24 08       	mov    %rax,0x8(%rsp)
  402b15:	31 c0                	xor    %eax,%eax
  402b17:	bb 01 00 00 00       	mov    $0x1,%ebx
  402b1c:	eb 18                	jmp    402b36 <rio_readlineb+0x42>
  402b1e:	85 c0                	test   %eax,%eax
  402b20:	75 65                	jne    402b87 <rio_readlineb+0x93>
  402b22:	48 83 fb 01          	cmp    $0x1,%rbx
  402b26:	75 3d                	jne    402b65 <rio_readlineb+0x71>
  402b28:	b8 00 00 00 00       	mov    $0x0,%eax
  402b2d:	eb 3d                	jmp    402b6c <rio_readlineb+0x78>
  402b2f:	48 83 c3 01          	add    $0x1,%rbx
  402b33:	48 89 d5             	mov    %rdx,%rbp
  402b36:	4c 39 e3             	cmp    %r12,%rbx
  402b39:	73 2a                	jae    402b65 <rio_readlineb+0x71>
  402b3b:	48 8d 74 24 07       	lea    0x7(%rsp),%rsi
  402b40:	ba 01 00 00 00       	mov    $0x1,%edx
  402b45:	4c 89 ef             	mov    %r13,%rdi
  402b48:	e8 20 ff ff ff       	callq  402a6d <rio_read>
  402b4d:	83 f8 01             	cmp    $0x1,%eax
  402b50:	75 cc                	jne    402b1e <rio_readlineb+0x2a>
  402b52:	48 8d 55 01          	lea    0x1(%rbp),%rdx
  402b56:	0f b6 44 24 07       	movzbl 0x7(%rsp),%eax
  402b5b:	88 45 00             	mov    %al,0x0(%rbp)
  402b5e:	3c 0a                	cmp    $0xa,%al
  402b60:	75 cd                	jne    402b2f <rio_readlineb+0x3b>
  402b62:	48 89 d5             	mov    %rdx,%rbp
  402b65:	c6 45 00 00          	movb   $0x0,0x0(%rbp)
  402b69:	48 89 d8             	mov    %rbx,%rax
  402b6c:	48 8b 4c 24 08       	mov    0x8(%rsp),%rcx
  402b71:	64 48 33 0c 25 28 00 	xor    %fs:0x28,%rcx
  402b78:	00 00 
  402b7a:	75 14                	jne    402b90 <rio_readlineb+0x9c>
  402b7c:	48 83 c4 18          	add    $0x18,%rsp
  402b80:	5b                   	pop    %rbx
  402b81:	5d                   	pop    %rbp
  402b82:	41 5c                	pop    %r12
  402b84:	41 5d                	pop    %r13
  402b86:	c3                   	retq   
  402b87:	48 c7 c0 ff ff ff ff 	mov    $0xffffffffffffffff,%rax
  402b8e:	eb dc                	jmp    402b6c <rio_readlineb+0x78>
  402b90:	e8 1b e7 ff ff       	callq  4012b0 <__stack_chk_fail@plt>

0000000000402b95 <urlencode>:
  402b95:	41 54                	push   %r12
  402b97:	55                   	push   %rbp
  402b98:	53                   	push   %rbx
  402b99:	48 83 ec 10          	sub    $0x10,%rsp
  402b9d:	48 89 fb             	mov    %rdi,%rbx
  402ba0:	48 89 f5             	mov    %rsi,%rbp
  402ba3:	64 48 8b 04 25 28 00 	mov    %fs:0x28,%rax
  402baa:	00 00 
  402bac:	48 89 44 24 08       	mov    %rax,0x8(%rsp)
  402bb1:	31 c0                	xor    %eax,%eax
  402bb3:	48 c7 c1 ff ff ff ff 	mov    $0xffffffffffffffff,%rcx
  402bba:	f2 ae                	repnz scas %es:(%rdi),%al
  402bbc:	48 f7 d1             	not    %rcx
  402bbf:	8d 41 ff             	lea    -0x1(%rcx),%eax
  402bc2:	eb 0f                	jmp    402bd3 <urlencode+0x3e>
  402bc4:	44 88 45 00          	mov    %r8b,0x0(%rbp)
  402bc8:	48 8d 6d 01          	lea    0x1(%rbp),%rbp
  402bcc:	48 83 c3 01          	add    $0x1,%rbx
  402bd0:	44 89 e0             	mov    %r12d,%eax
  402bd3:	44 8d 60 ff          	lea    -0x1(%rax),%r12d
  402bd7:	85 c0                	test   %eax,%eax
  402bd9:	0f 84 a8 00 00 00    	je     402c87 <urlencode+0xf2>
  402bdf:	44 0f b6 03          	movzbl (%rbx),%r8d
  402be3:	41 80 f8 2a          	cmp    $0x2a,%r8b
  402be7:	0f 94 c2             	sete   %dl
  402bea:	41 80 f8 2d          	cmp    $0x2d,%r8b
  402bee:	0f 94 c0             	sete   %al
  402bf1:	08 c2                	or     %al,%dl
  402bf3:	75 cf                	jne    402bc4 <urlencode+0x2f>
  402bf5:	41 80 f8 2e          	cmp    $0x2e,%r8b
  402bf9:	74 c9                	je     402bc4 <urlencode+0x2f>
  402bfb:	41 80 f8 5f          	cmp    $0x5f,%r8b
  402bff:	74 c3                	je     402bc4 <urlencode+0x2f>
  402c01:	41 8d 40 d0          	lea    -0x30(%r8),%eax
  402c05:	3c 09                	cmp    $0x9,%al
  402c07:	76 bb                	jbe    402bc4 <urlencode+0x2f>
  402c09:	41 8d 40 bf          	lea    -0x41(%r8),%eax
  402c0d:	3c 19                	cmp    $0x19,%al
  402c0f:	76 b3                	jbe    402bc4 <urlencode+0x2f>
  402c11:	41 8d 40 9f          	lea    -0x61(%r8),%eax
  402c15:	3c 19                	cmp    $0x19,%al
  402c17:	76 ab                	jbe    402bc4 <urlencode+0x2f>
  402c19:	41 80 f8 20          	cmp    $0x20,%r8b
  402c1d:	74 56                	je     402c75 <urlencode+0xe0>
  402c1f:	41 8d 40 e0          	lea    -0x20(%r8),%eax
  402c23:	3c 5f                	cmp    $0x5f,%al
  402c25:	0f 96 c2             	setbe  %dl
  402c28:	41 80 f8 09          	cmp    $0x9,%r8b
  402c2c:	0f 94 c0             	sete   %al
  402c2f:	08 c2                	or     %al,%dl
  402c31:	74 4f                	je     402c82 <urlencode+0xed>
  402c33:	48 89 e7             	mov    %rsp,%rdi
  402c36:	45 0f b6 c0          	movzbl %r8b,%r8d
  402c3a:	48 8d 0d 44 1b 00 00 	lea    0x1b44(%rip),%rcx        # 404785 <trans_char+0xa5>
  402c41:	ba 08 00 00 00       	mov    $0x8,%edx
  402c46:	be 01 00 00 00       	mov    $0x1,%esi
  402c4b:	b8 00 00 00 00       	mov    $0x0,%eax
  402c50:	e8 db e7 ff ff       	callq  401430 <__sprintf_chk@plt>
  402c55:	0f b6 04 24          	movzbl (%rsp),%eax
  402c59:	88 45 00             	mov    %al,0x0(%rbp)
  402c5c:	0f b6 44 24 01       	movzbl 0x1(%rsp),%eax
  402c61:	88 45 01             	mov    %al,0x1(%rbp)
  402c64:	0f b6 44 24 02       	movzbl 0x2(%rsp),%eax
  402c69:	88 45 02             	mov    %al,0x2(%rbp)
  402c6c:	48 8d 6d 03          	lea    0x3(%rbp),%rbp
  402c70:	e9 57 ff ff ff       	jmpq   402bcc <urlencode+0x37>
  402c75:	c6 45 00 2b          	movb   $0x2b,0x0(%rbp)
  402c79:	48 8d 6d 01          	lea    0x1(%rbp),%rbp
  402c7d:	e9 4a ff ff ff       	jmpq   402bcc <urlencode+0x37>
  402c82:	b8 ff ff ff ff       	mov    $0xffffffff,%eax
  402c87:	48 8b 74 24 08       	mov    0x8(%rsp),%rsi
  402c8c:	64 48 33 34 25 28 00 	xor    %fs:0x28,%rsi
  402c93:	00 00 
  402c95:	75 09                	jne    402ca0 <urlencode+0x10b>
  402c97:	48 83 c4 10          	add    $0x10,%rsp
  402c9b:	5b                   	pop    %rbx
  402c9c:	5d                   	pop    %rbp
  402c9d:	41 5c                	pop    %r12
  402c9f:	c3                   	retq   
  402ca0:	e8 0b e6 ff ff       	callq  4012b0 <__stack_chk_fail@plt>

0000000000402ca5 <submitr>:
  402ca5:	41 57                	push   %r15
  402ca7:	41 56                	push   %r14
  402ca9:	41 55                	push   %r13
  402cab:	41 54                	push   %r12
  402cad:	55                   	push   %rbp
  402cae:	53                   	push   %rbx
  402caf:	4c 8d 9c 24 00 60 ff 	lea    -0xa000(%rsp),%r11
  402cb6:	ff 
  402cb7:	48 81 ec 00 10 00 00 	sub    $0x1000,%rsp
  402cbe:	48 83 0c 24 00       	orq    $0x0,(%rsp)
  402cc3:	4c 39 dc             	cmp    %r11,%rsp
  402cc6:	75 ef                	jne    402cb7 <submitr+0x12>
  402cc8:	48 83 ec 68          	sub    $0x68,%rsp
  402ccc:	49 89 fc             	mov    %rdi,%r12
  402ccf:	89 74 24 14          	mov    %esi,0x14(%rsp)
  402cd3:	49 89 d6             	mov    %rdx,%r14
  402cd6:	48 89 4c 24 08       	mov    %rcx,0x8(%rsp)
  402cdb:	4c 89 44 24 18       	mov    %r8,0x18(%rsp)
  402ce0:	4d 89 cd             	mov    %r9,%r13
  402ce3:	48 8b ac 24 a0 a0 00 	mov    0xa0a0(%rsp),%rbp
  402cea:	00 
  402ceb:	64 48 8b 04 25 28 00 	mov    %fs:0x28,%rax
  402cf2:	00 00 
  402cf4:	48 89 84 24 58 a0 00 	mov    %rax,0xa058(%rsp)
  402cfb:	00 
  402cfc:	31 c0                	xor    %eax,%eax
  402cfe:	c7 44 24 2c 00 00 00 	movl   $0x0,0x2c(%rsp)
  402d05:	00 
  402d06:	ba 00 00 00 00       	mov    $0x0,%edx
  402d0b:	be 01 00 00 00       	mov    $0x1,%esi
  402d10:	bf 02 00 00 00       	mov    $0x2,%edi
  402d15:	e8 26 e7 ff ff       	callq  401440 <socket@plt>
  402d1a:	85 c0                	test   %eax,%eax
  402d1c:	0f 88 a0 02 00 00    	js     402fc2 <submitr+0x31d>
  402d22:	89 c3                	mov    %eax,%ebx
  402d24:	4c 89 e7             	mov    %r12,%rdi
  402d27:	e8 f4 e5 ff ff       	callq  401320 <gethostbyname@plt>
  402d2c:	48 85 c0             	test   %rax,%rax
  402d2f:	0f 84 d9 02 00 00    	je     40300e <submitr+0x369>
  402d35:	4c 8d 7c 24 30       	lea    0x30(%rsp),%r15
  402d3a:	48 c7 44 24 30 00 00 	movq   $0x0,0x30(%rsp)
  402d41:	00 00 
  402d43:	48 c7 44 24 38 00 00 	movq   $0x0,0x38(%rsp)
  402d4a:	00 00 
  402d4c:	66 c7 44 24 30 02 00 	movw   $0x2,0x30(%rsp)
  402d53:	48 63 50 14          	movslq 0x14(%rax),%rdx
  402d57:	48 8b 40 18          	mov    0x18(%rax),%rax
  402d5b:	48 8b 30             	mov    (%rax),%rsi
  402d5e:	48 8d 7c 24 34       	lea    0x34(%rsp),%rdi
  402d63:	b9 0c 00 00 00       	mov    $0xc,%ecx
  402d68:	e8 c3 e5 ff ff       	callq  401330 <__memmove_chk@plt>
  402d6d:	0f b7 74 24 14       	movzwl 0x14(%rsp),%esi
  402d72:	66 c1 c6 08          	rol    $0x8,%si
  402d76:	66 89 74 24 32       	mov    %si,0x32(%rsp)
  402d7b:	ba 10 00 00 00       	mov    $0x10,%edx
  402d80:	4c 89 fe             	mov    %r15,%rsi
  402d83:	89 df                	mov    %ebx,%edi
  402d85:	e8 76 e6 ff ff       	callq  401400 <connect@plt>
  402d8a:	85 c0                	test   %eax,%eax
  402d8c:	0f 88 e4 02 00 00    	js     403076 <submitr+0x3d1>
  402d92:	49 c7 c0 ff ff ff ff 	mov    $0xffffffffffffffff,%r8
  402d99:	b8 00 00 00 00       	mov    $0x0,%eax
  402d9e:	4c 89 c1             	mov    %r8,%rcx
  402da1:	4c 89 ef             	mov    %r13,%rdi
  402da4:	f2 ae                	repnz scas %es:(%rdi),%al
  402da6:	48 89 ca             	mov    %rcx,%rdx
  402da9:	48 f7 d2             	not    %rdx
  402dac:	4c 89 c1             	mov    %r8,%rcx
  402daf:	4c 89 f7             	mov    %r14,%rdi
  402db2:	f2 ae                	repnz scas %es:(%rdi),%al
  402db4:	48 f7 d1             	not    %rcx
  402db7:	48 89 ce             	mov    %rcx,%rsi
  402dba:	4c 89 c1             	mov    %r8,%rcx
  402dbd:	48 8b 7c 24 08       	mov    0x8(%rsp),%rdi
  402dc2:	f2 ae                	repnz scas %es:(%rdi),%al
  402dc4:	48 f7 d1             	not    %rcx
  402dc7:	48 8d 74 0e fe       	lea    -0x2(%rsi,%rcx,1),%rsi
  402dcc:	4c 89 c1             	mov    %r8,%rcx
  402dcf:	48 8b 7c 24 18       	mov    0x18(%rsp),%rdi
  402dd4:	f2 ae                	repnz scas %es:(%rdi),%al
  402dd6:	48 89 c8             	mov    %rcx,%rax
  402dd9:	48 f7 d0             	not    %rax
  402ddc:	48 8d 4c 06 ff       	lea    -0x1(%rsi,%rax,1),%rcx
  402de1:	48 8d 44 52 fd       	lea    -0x3(%rdx,%rdx,2),%rax
  402de6:	48 8d 84 01 80 00 00 	lea    0x80(%rcx,%rax,1),%rax
  402ded:	00 
  402dee:	48 3d 00 20 00 00    	cmp    $0x2000,%rax
  402df4:	0f 87 d6 02 00 00    	ja     4030d0 <submitr+0x42b>
  402dfa:	48 8d b4 24 50 40 00 	lea    0x4050(%rsp),%rsi
  402e01:	00 
  402e02:	b9 00 04 00 00       	mov    $0x400,%ecx
  402e07:	b8 00 00 00 00       	mov    $0x0,%eax
  402e0c:	48 89 f7             	mov    %rsi,%rdi
  402e0f:	f3 48 ab             	rep stos %rax,%es:(%rdi)
  402e12:	4c 89 ef             	mov    %r13,%rdi
  402e15:	e8 7b fd ff ff       	callq  402b95 <urlencode>
  402e1a:	85 c0                	test   %eax,%eax
  402e1c:	0f 88 21 03 00 00    	js     403143 <submitr+0x49e>
  402e22:	4c 8d bc 24 50 20 00 	lea    0x2050(%rsp),%r15
  402e29:	00 
  402e2a:	41 54                	push   %r12
  402e2c:	48 8d 84 24 58 40 00 	lea    0x4058(%rsp),%rax
  402e33:	00 
  402e34:	50                   	push   %rax
  402e35:	4d 89 f1             	mov    %r14,%r9
  402e38:	4c 8b 44 24 18       	mov    0x18(%rsp),%r8
  402e3d:	48 8d 0d d4 18 00 00 	lea    0x18d4(%rip),%rcx        # 404718 <trans_char+0x38>
  402e44:	ba 00 20 00 00       	mov    $0x2000,%edx
  402e49:	be 01 00 00 00       	mov    $0x1,%esi
  402e4e:	4c 89 ff             	mov    %r15,%rdi
  402e51:	b8 00 00 00 00       	mov    $0x0,%eax
  402e56:	e8 d5 e5 ff ff       	callq  401430 <__sprintf_chk@plt>
  402e5b:	48 c7 c1 ff ff ff ff 	mov    $0xffffffffffffffff,%rcx
  402e62:	b8 00 00 00 00       	mov    $0x0,%eax
  402e67:	4c 89 ff             	mov    %r15,%rdi
  402e6a:	f2 ae                	repnz scas %es:(%rdi),%al
  402e6c:	48 f7 d1             	not    %rcx
  402e6f:	48 8d 51 ff          	lea    -0x1(%rcx),%rdx
  402e73:	4c 89 fe             	mov    %r15,%rsi
  402e76:	89 df                	mov    %ebx,%edi
  402e78:	e8 92 fb ff ff       	callq  402a0f <rio_writen>
  402e7d:	48 83 c4 10          	add    $0x10,%rsp
  402e81:	48 85 c0             	test   %rax,%rax
  402e84:	0f 88 44 03 00 00    	js     4031ce <submitr+0x529>
  402e8a:	4c 8d 64 24 40       	lea    0x40(%rsp),%r12
  402e8f:	89 de                	mov    %ebx,%esi
  402e91:	4c 89 e7             	mov    %r12,%rdi
  402e94:	e8 32 fb ff ff       	callq  4029cb <rio_readinitb>
  402e99:	48 8d b4 24 50 20 00 	lea    0x2050(%rsp),%rsi
  402ea0:	00 
  402ea1:	ba 00 20 00 00       	mov    $0x2000,%edx
  402ea6:	4c 89 e7             	mov    %r12,%rdi
  402ea9:	e8 46 fc ff ff       	callq  402af4 <rio_readlineb>
  402eae:	48 85 c0             	test   %rax,%rax
  402eb1:	0f 8e 86 03 00 00    	jle    40323d <submitr+0x598>
  402eb7:	48 8d 4c 24 2c       	lea    0x2c(%rsp),%rcx
  402ebc:	48 8d 94 24 50 60 00 	lea    0x6050(%rsp),%rdx
  402ec3:	00 
  402ec4:	48 8d bc 24 50 20 00 	lea    0x2050(%rsp),%rdi
  402ecb:	00 
  402ecc:	4c 8d 84 24 50 80 00 	lea    0x8050(%rsp),%r8
  402ed3:	00 
  402ed4:	48 8d 35 b1 18 00 00 	lea    0x18b1(%rip),%rsi        # 40478c <trans_char+0xac>
  402edb:	b8 00 00 00 00       	mov    $0x0,%eax
  402ee0:	e8 9b e4 ff ff       	callq  401380 <__isoc99_sscanf@plt>
  402ee5:	48 8d b4 24 50 20 00 	lea    0x2050(%rsp),%rsi
  402eec:	00 
  402eed:	b9 03 00 00 00       	mov    $0x3,%ecx
  402ef2:	48 8d 3d aa 18 00 00 	lea    0x18aa(%rip),%rdi        # 4047a3 <trans_char+0xc3>
  402ef9:	f3 a6                	repz cmpsb %es:(%rdi),%ds:(%rsi)
  402efb:	0f 97 c0             	seta   %al
  402efe:	1c 00                	sbb    $0x0,%al
  402f00:	84 c0                	test   %al,%al
  402f02:	0f 84 b3 03 00 00    	je     4032bb <submitr+0x616>
  402f08:	48 8d b4 24 50 20 00 	lea    0x2050(%rsp),%rsi
  402f0f:	00 
  402f10:	48 8d 7c 24 40       	lea    0x40(%rsp),%rdi
  402f15:	ba 00 20 00 00       	mov    $0x2000,%edx
  402f1a:	e8 d5 fb ff ff       	callq  402af4 <rio_readlineb>
  402f1f:	48 85 c0             	test   %rax,%rax
  402f22:	7f c1                	jg     402ee5 <submitr+0x240>
  402f24:	48 b8 45 72 72 6f 72 	movabs $0x43203a726f727245,%rax
  402f2b:	3a 20 43 
  402f2e:	48 ba 6c 69 65 6e 74 	movabs $0x6e7520746e65696c,%rdx
  402f35:	20 75 6e 
  402f38:	48 89 45 00          	mov    %rax,0x0(%rbp)
  402f3c:	48 89 55 08          	mov    %rdx,0x8(%rbp)
  402f40:	48 b8 61 62 6c 65 20 	movabs $0x206f7420656c6261,%rax
  402f47:	74 6f 20 
  402f4a:	48 ba 72 65 61 64 20 	movabs $0x6165682064616572,%rdx
  402f51:	68 65 61 
  402f54:	48 89 45 10          	mov    %rax,0x10(%rbp)
  402f58:	48 89 55 18          	mov    %rdx,0x18(%rbp)
  402f5c:	48 b8 64 65 72 73 20 	movabs $0x6f72662073726564,%rax
  402f63:	66 72 6f 
  402f66:	48 ba 6d 20 74 68 65 	movabs $0x657220656874206d,%rdx
  402f6d:	20 72 65 
  402f70:	48 89 45 20          	mov    %rax,0x20(%rbp)
  402f74:	48 89 55 28          	mov    %rdx,0x28(%rbp)
  402f78:	48 b8 73 75 6c 74 20 	movabs $0x72657320746c7573,%rax
  402f7f:	73 65 72 
  402f82:	48 89 45 30          	mov    %rax,0x30(%rbp)
  402f86:	c7 45 38 76 65 72 00 	movl   $0x726576,0x38(%rbp)
  402f8d:	89 df                	mov    %ebx,%edi
  402f8f:	e8 5c e3 ff ff       	callq  4012f0 <close@plt>
  402f94:	b8 ff ff ff ff       	mov    $0xffffffff,%eax
  402f99:	48 8b 9c 24 58 a0 00 	mov    0xa058(%rsp),%rbx
  402fa0:	00 
  402fa1:	64 48 33 1c 25 28 00 	xor    %fs:0x28,%rbx
  402fa8:	00 00 
  402faa:	0f 85 7e 04 00 00    	jne    40342e <submitr+0x789>
  402fb0:	48 81 c4 68 a0 00 00 	add    $0xa068,%rsp
  402fb7:	5b                   	pop    %rbx
  402fb8:	5d                   	pop    %rbp
  402fb9:	41 5c                	pop    %r12
  402fbb:	41 5d                	pop    %r13
  402fbd:	41 5e                	pop    %r14
  402fbf:	41 5f                	pop    %r15
  402fc1:	c3                   	retq   
  402fc2:	48 b8 45 72 72 6f 72 	movabs $0x43203a726f727245,%rax
  402fc9:	3a 20 43 
  402fcc:	48 ba 6c 69 65 6e 74 	movabs $0x6e7520746e65696c,%rdx
  402fd3:	20 75 6e 
  402fd6:	48 89 45 00          	mov    %rax,0x0(%rbp)
  402fda:	48 89 55 08          	mov    %rdx,0x8(%rbp)
  402fde:	48 b8 61 62 6c 65 20 	movabs $0x206f7420656c6261,%rax
  402fe5:	74 6f 20 
  402fe8:	48 ba 63 72 65 61 74 	movabs $0x7320657461657263,%rdx
  402fef:	65 20 73 
  402ff2:	48 89 45 10          	mov    %rax,0x10(%rbp)
  402ff6:	48 89 55 18          	mov    %rdx,0x18(%rbp)
  402ffa:	c7 45 20 6f 63 6b 65 	movl   $0x656b636f,0x20(%rbp)
  403001:	66 c7 45 24 74 00    	movw   $0x74,0x24(%rbp)
  403007:	b8 ff ff ff ff       	mov    $0xffffffff,%eax
  40300c:	eb 8b                	jmp    402f99 <submitr+0x2f4>
  40300e:	48 b8 45 72 72 6f 72 	movabs $0x44203a726f727245,%rax
  403015:	3a 20 44 
  403018:	48 ba 4e 53 20 69 73 	movabs $0x6e7520736920534e,%rdx
  40301f:	20 75 6e 
  403022:	48 89 45 00          	mov    %rax,0x0(%rbp)
  403026:	48 89 55 08          	mov    %rdx,0x8(%rbp)
  40302a:	48 b8 61 62 6c 65 20 	movabs $0x206f7420656c6261,%rax
  403031:	74 6f 20 
  403034:	48 ba 72 65 73 6f 6c 	movabs $0x2065766c6f736572,%rdx
  40303b:	76 65 20 
  40303e:	48 89 45 10          	mov    %rax,0x10(%rbp)
  403042:	48 89 55 18          	mov    %rdx,0x18(%rbp)
  403046:	48 b8 73 65 72 76 65 	movabs $0x6120726576726573,%rax
  40304d:	72 20 61 
  403050:	48 89 45 20          	mov    %rax,0x20(%rbp)
  403054:	c7 45 28 64 64 72 65 	movl   $0x65726464,0x28(%rbp)
  40305b:	66 c7 45 2c 73 73    	movw   $0x7373,0x2c(%rbp)
  403061:	c6 45 2e 00          	movb   $0x0,0x2e(%rbp)
  403065:	89 df                	mov    %ebx,%edi
  403067:	e8 84 e2 ff ff       	callq  4012f0 <close@plt>
  40306c:	b8 ff ff ff ff       	mov    $0xffffffff,%eax
  403071:	e9 23 ff ff ff       	jmpq   402f99 <submitr+0x2f4>
  403076:	48 b8 45 72 72 6f 72 	movabs $0x55203a726f727245,%rax
  40307d:	3a 20 55 
  403080:	48 ba 6e 61 62 6c 65 	movabs $0x6f7420656c62616e,%rdx
  403087:	20 74 6f 
  40308a:	48 89 45 00          	mov    %rax,0x0(%rbp)
  40308e:	48 89 55 08          	mov    %rdx,0x8(%rbp)
  403092:	48 b8 20 63 6f 6e 6e 	movabs $0x7463656e6e6f6320,%rax
  403099:	65 63 74 
  40309c:	48 ba 20 74 6f 20 74 	movabs $0x20656874206f7420,%rdx
  4030a3:	68 65 20 
  4030a6:	48 89 45 10          	mov    %rax,0x10(%rbp)
  4030aa:	48 89 55 18          	mov    %rdx,0x18(%rbp)
  4030ae:	c7 45 20 73 65 72 76 	movl   $0x76726573,0x20(%rbp)
  4030b5:	66 c7 45 24 65 72    	movw   $0x7265,0x24(%rbp)
  4030bb:	c6 45 26 00          	movb   $0x0,0x26(%rbp)
  4030bf:	89 df                	mov    %ebx,%edi
  4030c1:	e8 2a e2 ff ff       	callq  4012f0 <close@plt>
  4030c6:	b8 ff ff ff ff       	mov    $0xffffffff,%eax
  4030cb:	e9 c9 fe ff ff       	jmpq   402f99 <submitr+0x2f4>
  4030d0:	48 b8 45 72 72 6f 72 	movabs $0x52203a726f727245,%rax
  4030d7:	3a 20 52 
  4030da:	48 ba 65 73 75 6c 74 	movabs $0x747320746c757365,%rdx
  4030e1:	20 73 74 
  4030e4:	48 89 45 00          	mov    %rax,0x0(%rbp)
  4030e8:	48 89 55 08          	mov    %rdx,0x8(%rbp)
  4030ec:	48 b8 72 69 6e 67 20 	movabs $0x6f6f7420676e6972,%rax
  4030f3:	74 6f 6f 
  4030f6:	48 ba 20 6c 61 72 67 	movabs $0x202e656772616c20,%rdx
  4030fd:	65 2e 20 
  403100:	48 89 45 10          	mov    %rax,0x10(%rbp)
  403104:	48 89 55 18          	mov    %rdx,0x18(%rbp)
  403108:	48 b8 49 6e 63 72 65 	movabs $0x6573616572636e49,%rax
  40310f:	61 73 65 
  403112:	48 ba 20 53 55 42 4d 	movabs $0x5254494d42555320,%rdx
  403119:	49 54 52 
  40311c:	48 89 45 20          	mov    %rax,0x20(%rbp)
  403120:	48 89 55 28          	mov    %rdx,0x28(%rbp)
  403124:	48 b8 5f 4d 41 58 42 	movabs $0x46554258414d5f,%rax
  40312b:	55 46 00 
  40312e:	48 89 45 30          	mov    %rax,0x30(%rbp)
  403132:	89 df                	mov    %ebx,%edi
  403134:	e8 b7 e1 ff ff       	callq  4012f0 <close@plt>
  403139:	b8 ff ff ff ff       	mov    $0xffffffff,%eax
  40313e:	e9 56 fe ff ff       	jmpq   402f99 <submitr+0x2f4>
  403143:	48 b8 45 72 72 6f 72 	movabs $0x52203a726f727245,%rax
  40314a:	3a 20 52 
  40314d:	48 ba 65 73 75 6c 74 	movabs $0x747320746c757365,%rdx
  403154:	20 73 74 
  403157:	48 89 45 00          	mov    %rax,0x0(%rbp)
  40315b:	48 89 55 08          	mov    %rdx,0x8(%rbp)
  40315f:	48 b8 72 69 6e 67 20 	movabs $0x6e6f6320676e6972,%rax
  403166:	63 6f 6e 
  403169:	48 ba 74 61 69 6e 73 	movabs $0x6e6120736e696174,%rdx
  403170:	20 61 6e 
  403173:	48 89 45 10          	mov    %rax,0x10(%rbp)
  403177:	48 89 55 18          	mov    %rdx,0x18(%rbp)
  40317b:	48 b8 20 69 6c 6c 65 	movabs $0x6c6167656c6c6920,%rax
  403182:	67 61 6c 
  403185:	48 ba 20 6f 72 20 75 	movabs $0x72706e7520726f20,%rdx
  40318c:	6e 70 72 
  40318f:	48 89 45 20          	mov    %rax,0x20(%rbp)
  403193:	48 89 55 28          	mov    %rdx,0x28(%rbp)
  403197:	48 b8 69 6e 74 61 62 	movabs $0x20656c6261746e69,%rax
  40319e:	6c 65 20 
  4031a1:	48 ba 63 68 61 72 61 	movabs $0x6574636172616863,%rdx
  4031a8:	63 74 65 
  4031ab:	48 89 45 30          	mov    %rax,0x30(%rbp)
  4031af:	48 89 55 38          	mov    %rdx,0x38(%rbp)
  4031b3:	66 c7 45 40 72 2e    	movw   $0x2e72,0x40(%rbp)
  4031b9:	c6 45 42 00          	movb   $0x0,0x42(%rbp)
  4031bd:	89 df                	mov    %ebx,%edi
  4031bf:	e8 2c e1 ff ff       	callq  4012f0 <close@plt>
  4031c4:	b8 ff ff ff ff       	mov    $0xffffffff,%eax
  4031c9:	e9 cb fd ff ff       	jmpq   402f99 <submitr+0x2f4>
  4031ce:	48 b8 45 72 72 6f 72 	movabs $0x43203a726f727245,%rax
  4031d5:	3a 20 43 
  4031d8:	48 ba 6c 69 65 6e 74 	movabs $0x6e7520746e65696c,%rdx
  4031df:	20 75 6e 
  4031e2:	48 89 45 00          	mov    %rax,0x0(%rbp)
  4031e6:	48 89 55 08          	mov    %rdx,0x8(%rbp)
  4031ea:	48 b8 61 62 6c 65 20 	movabs $0x206f7420656c6261,%rax
  4031f1:	74 6f 20 
  4031f4:	48 ba 77 72 69 74 65 	movabs $0x6f74206574697277,%rdx
  4031fb:	20 74 6f 
  4031fe:	48 89 45 10          	mov    %rax,0x10(%rbp)
  403202:	48 89 55 18          	mov    %rdx,0x18(%rbp)
  403206:	48 b8 20 74 68 65 20 	movabs $0x7365722065687420,%rax
  40320d:	72 65 73 
  403210:	48 ba 75 6c 74 20 73 	movabs $0x7672657320746c75,%rdx
  403217:	65 72 76 
  40321a:	48 89 45 20          	mov    %rax,0x20(%rbp)
  40321e:	48 89 55 28          	mov    %rdx,0x28(%rbp)
  403222:	66 c7 45 30 65 72    	movw   $0x7265,0x30(%rbp)
  403228:	c6 45 32 00          	movb   $0x0,0x32(%rbp)
  40322c:	89 df                	mov    %ebx,%edi
  40322e:	e8 bd e0 ff ff       	callq  4012f0 <close@plt>
  403233:	b8 ff ff ff ff       	mov    $0xffffffff,%eax
  403238:	e9 5c fd ff ff       	jmpq   402f99 <submitr+0x2f4>
  40323d:	48 b8 45 72 72 6f 72 	movabs $0x43203a726f727245,%rax
  403244:	3a 20 43 
  403247:	48 ba 6c 69 65 6e 74 	movabs $0x6e7520746e65696c,%rdx
  40324e:	20 75 6e 
  403251:	48 89 45 00          	mov    %rax,0x0(%rbp)
  403255:	48 89 55 08          	mov    %rdx,0x8(%rbp)
  403259:	48 b8 61 62 6c 65 20 	movabs $0x206f7420656c6261,%rax
  403260:	74 6f 20 
  403263:	48 ba 72 65 61 64 20 	movabs $0x7269662064616572,%rdx
  40326a:	66 69 72 
  40326d:	48 89 45 10          	mov    %rax,0x10(%rbp)
  403271:	48 89 55 18          	mov    %rdx,0x18(%rbp)
  403275:	48 b8 73 74 20 68 65 	movabs $0x6564616568207473,%rax
  40327c:	61 64 65 
  40327f:	48 ba 72 20 66 72 6f 	movabs $0x72206d6f72662072,%rdx
  403286:	6d 20 72 
  403289:	48 89 45 20          	mov    %rax,0x20(%rbp)
  40328d:	48 89 55 28          	mov    %rdx,0x28(%rbp)
  403291:	48 b8 65 73 75 6c 74 	movabs $0x657320746c757365,%rax
  403298:	20 73 65 
  40329b:	48 89 45 30          	mov    %rax,0x30(%rbp)
  40329f:	c7 45 38 72 76 65 72 	movl   $0x72657672,0x38(%rbp)
  4032a6:	c6 45 3c 00          	movb   $0x0,0x3c(%rbp)
  4032aa:	89 df                	mov    %ebx,%edi
  4032ac:	e8 3f e0 ff ff       	callq  4012f0 <close@plt>
  4032b1:	b8 ff ff ff ff       	mov    $0xffffffff,%eax
  4032b6:	e9 de fc ff ff       	jmpq   402f99 <submitr+0x2f4>
  4032bb:	48 8d b4 24 50 20 00 	lea    0x2050(%rsp),%rsi
  4032c2:	00 
  4032c3:	48 8d 7c 24 40       	lea    0x40(%rsp),%rdi
  4032c8:	ba 00 20 00 00       	mov    $0x2000,%edx
  4032cd:	e8 22 f8 ff ff       	callq  402af4 <rio_readlineb>
  4032d2:	48 85 c0             	test   %rax,%rax
  4032d5:	0f 8e 96 00 00 00    	jle    403371 <submitr+0x6cc>
  4032db:	44 8b 44 24 2c       	mov    0x2c(%rsp),%r8d
  4032e0:	41 81 f8 c8 00 00 00 	cmp    $0xc8,%r8d
  4032e7:	0f 85 08 01 00 00    	jne    4033f5 <submitr+0x750>
  4032ed:	48 8d b4 24 50 20 00 	lea    0x2050(%rsp),%rsi
  4032f4:	00 
  4032f5:	48 89 ef             	mov    %rbp,%rdi
  4032f8:	e8 83 df ff ff       	callq  401280 <strcpy@plt>
  4032fd:	89 df                	mov    %ebx,%edi
  4032ff:	e8 ec df ff ff       	callq  4012f0 <close@plt>
  403304:	b9 04 00 00 00       	mov    $0x4,%ecx
  403309:	48 8d 3d 8d 14 00 00 	lea    0x148d(%rip),%rdi        # 40479d <trans_char+0xbd>
  403310:	48 89 ee             	mov    %rbp,%rsi
  403313:	f3 a6                	repz cmpsb %es:(%rdi),%ds:(%rsi)
  403315:	0f 97 c0             	seta   %al
  403318:	1c 00                	sbb    $0x0,%al
  40331a:	0f be c0             	movsbl %al,%eax
  40331d:	85 c0                	test   %eax,%eax
  40331f:	0f 84 74 fc ff ff    	je     402f99 <submitr+0x2f4>
  403325:	b9 05 00 00 00       	mov    $0x5,%ecx
  40332a:	48 8d 3d 70 14 00 00 	lea    0x1470(%rip),%rdi        # 4047a1 <trans_char+0xc1>
  403331:	48 89 ee             	mov    %rbp,%rsi
  403334:	f3 a6                	repz cmpsb %es:(%rdi),%ds:(%rsi)
  403336:	0f 97 c0             	seta   %al
  403339:	1c 00                	sbb    $0x0,%al
  40333b:	0f be c0             	movsbl %al,%eax
  40333e:	85 c0                	test   %eax,%eax
  403340:	0f 84 53 fc ff ff    	je     402f99 <submitr+0x2f4>
  403346:	b9 03 00 00 00       	mov    $0x3,%ecx
  40334b:	48 8d 3d 54 14 00 00 	lea    0x1454(%rip),%rdi        # 4047a6 <trans_char+0xc6>
  403352:	48 89 ee             	mov    %rbp,%rsi
  403355:	f3 a6                	repz cmpsb %es:(%rdi),%ds:(%rsi)
  403357:	0f 97 c0             	seta   %al
  40335a:	1c 00                	sbb    $0x0,%al
  40335c:	0f be c0             	movsbl %al,%eax
  40335f:	85 c0                	test   %eax,%eax
  403361:	0f 84 32 fc ff ff    	je     402f99 <submitr+0x2f4>
  403367:	b8 ff ff ff ff       	mov    $0xffffffff,%eax
  40336c:	e9 28 fc ff ff       	jmpq   402f99 <submitr+0x2f4>
  403371:	48 b8 45 72 72 6f 72 	movabs $0x43203a726f727245,%rax
  403378:	3a 20 43 
  40337b:	48 ba 6c 69 65 6e 74 	movabs $0x6e7520746e65696c,%rdx
  403382:	20 75 6e 
  403385:	48 89 45 00          	mov    %rax,0x0(%rbp)
  403389:	48 89 55 08          	mov    %rdx,0x8(%rbp)
  40338d:	48 b8 61 62 6c 65 20 	movabs $0x206f7420656c6261,%rax
  403394:	74 6f 20 
  403397:	48 ba 72 65 61 64 20 	movabs $0x6174732064616572,%rdx
  40339e:	73 74 61 
  4033a1:	48 89 45 10          	mov    %rax,0x10(%rbp)
  4033a5:	48 89 55 18          	mov    %rdx,0x18(%rbp)
  4033a9:	48 b8 74 75 73 20 6d 	movabs $0x7373656d20737574,%rax
  4033b0:	65 73 73 
  4033b3:	48 ba 61 67 65 20 66 	movabs $0x6d6f726620656761,%rdx
  4033ba:	72 6f 6d 
  4033bd:	48 89 45 20          	mov    %rax,0x20(%rbp)
  4033c1:	48 89 55 28          	mov    %rdx,0x28(%rbp)
  4033c5:	48 b8 20 72 65 73 75 	movabs $0x20746c7573657220,%rax
  4033cc:	6c 74 20 
  4033cf:	48 89 45 30          	mov    %rax,0x30(%rbp)
  4033d3:	c7 45 38 73 65 72 76 	movl   $0x76726573,0x38(%rbp)
  4033da:	66 c7 45 3c 65 72    	movw   $0x7265,0x3c(%rbp)
  4033e0:	c6 45 3e 00          	movb   $0x0,0x3e(%rbp)
  4033e4:	89 df                	mov    %ebx,%edi
  4033e6:	e8 05 df ff ff       	callq  4012f0 <close@plt>
  4033eb:	b8 ff ff ff ff       	mov    $0xffffffff,%eax
  4033f0:	e9 a4 fb ff ff       	jmpq   402f99 <submitr+0x2f4>
  4033f5:	4c 8d 8c 24 50 80 00 	lea    0x8050(%rsp),%r9
  4033fc:	00 
  4033fd:	48 8d 0d 54 13 00 00 	lea    0x1354(%rip),%rcx        # 404758 <trans_char+0x78>
  403404:	48 c7 c2 ff ff ff ff 	mov    $0xffffffffffffffff,%rdx
  40340b:	be 01 00 00 00       	mov    $0x1,%esi
  403410:	48 89 ef             	mov    %rbp,%rdi
  403413:	b8 00 00 00 00       	mov    $0x0,%eax
  403418:	e8 13 e0 ff ff       	callq  401430 <__sprintf_chk@plt>
  40341d:	89 df                	mov    %ebx,%edi
  40341f:	e8 cc de ff ff       	callq  4012f0 <close@plt>
  403424:	b8 ff ff ff ff       	mov    $0xffffffff,%eax
  403429:	e9 6b fb ff ff       	jmpq   402f99 <submitr+0x2f4>
  40342e:	e8 7d de ff ff       	callq  4012b0 <__stack_chk_fail@plt>

0000000000403433 <init_timeout>:
  403433:	85 ff                	test   %edi,%edi
  403435:	74 26                	je     40345d <init_timeout+0x2a>
  403437:	53                   	push   %rbx
  403438:	89 fb                	mov    %edi,%ebx
  40343a:	78 1a                	js     403456 <init_timeout+0x23>
  40343c:	48 8d 35 9a f5 ff ff 	lea    -0xa66(%rip),%rsi        # 4029dd <sigalrm_handler>
  403443:	bf 0e 00 00 00       	mov    $0xe,%edi
  403448:	e8 c3 de ff ff       	callq  401310 <signal@plt>
  40344d:	89 df                	mov    %ebx,%edi
  40344f:	e8 8c de ff ff       	callq  4012e0 <alarm@plt>
  403454:	5b                   	pop    %rbx
  403455:	c3                   	retq   
  403456:	bb 00 00 00 00       	mov    $0x0,%ebx
  40345b:	eb df                	jmp    40343c <init_timeout+0x9>
  40345d:	c3                   	retq   

000000000040345e <init_driver>:
  40345e:	41 54                	push   %r12
  403460:	55                   	push   %rbp
  403461:	53                   	push   %rbx
  403462:	48 83 ec 20          	sub    $0x20,%rsp
  403466:	48 89 fd             	mov    %rdi,%rbp
  403469:	64 48 8b 04 25 28 00 	mov    %fs:0x28,%rax
  403470:	00 00 
  403472:	48 89 44 24 18       	mov    %rax,0x18(%rsp)
  403477:	31 c0                	xor    %eax,%eax
  403479:	be 01 00 00 00       	mov    $0x1,%esi
  40347e:	bf 0d 00 00 00       	mov    $0xd,%edi
  403483:	e8 88 de ff ff       	callq  401310 <signal@plt>
  403488:	be 01 00 00 00       	mov    $0x1,%esi
  40348d:	bf 1d 00 00 00       	mov    $0x1d,%edi
  403492:	e8 79 de ff ff       	callq  401310 <signal@plt>
  403497:	be 01 00 00 00       	mov    $0x1,%esi
  40349c:	bf 1d 00 00 00       	mov    $0x1d,%edi
  4034a1:	e8 6a de ff ff       	callq  401310 <signal@plt>
  4034a6:	ba 00 00 00 00       	mov    $0x0,%edx
  4034ab:	be 01 00 00 00       	mov    $0x1,%esi
  4034b0:	bf 02 00 00 00       	mov    $0x2,%edi
  4034b5:	e8 86 df ff ff       	callq  401440 <socket@plt>
  4034ba:	85 c0                	test   %eax,%eax
  4034bc:	0f 88 9c 00 00 00    	js     40355e <init_driver+0x100>
  4034c2:	89 c3                	mov    %eax,%ebx
  4034c4:	48 8d 3d 19 0e 00 00 	lea    0xe19(%rip),%rdi        # 4042e4 <_IO_stdin_used+0x2e4>
  4034cb:	e8 50 de ff ff       	callq  401320 <gethostbyname@plt>
  4034d0:	48 85 c0             	test   %rax,%rax
  4034d3:	0f 84 d1 00 00 00    	je     4035aa <init_driver+0x14c>
  4034d9:	49 89 e4             	mov    %rsp,%r12
  4034dc:	48 c7 04 24 00 00 00 	movq   $0x0,(%rsp)
  4034e3:	00 
  4034e4:	48 c7 44 24 08 00 00 	movq   $0x0,0x8(%rsp)
  4034eb:	00 00 
  4034ed:	66 c7 04 24 02 00    	movw   $0x2,(%rsp)
  4034f3:	48 63 50 14          	movslq 0x14(%rax),%rdx
  4034f7:	48 8b 40 18          	mov    0x18(%rax),%rax
  4034fb:	48 8b 30             	mov    (%rax),%rsi
  4034fe:	48 8d 7c 24 04       	lea    0x4(%rsp),%rdi
  403503:	b9 0c 00 00 00       	mov    $0xc,%ecx
  403508:	e8 23 de ff ff       	callq  401330 <__memmove_chk@plt>
  40350d:	66 c7 44 24 02 1f 96 	movw   $0x961f,0x2(%rsp)
  403514:	ba 10 00 00 00       	mov    $0x10,%edx
  403519:	4c 89 e6             	mov    %r12,%rsi
  40351c:	89 df                	mov    %ebx,%edi
  40351e:	e8 dd de ff ff       	callq  401400 <connect@plt>
  403523:	85 c0                	test   %eax,%eax
  403525:	0f 88 e7 00 00 00    	js     403612 <init_driver+0x1b4>
  40352b:	89 df                	mov    %ebx,%edi
  40352d:	e8 be dd ff ff       	callq  4012f0 <close@plt>
  403532:	66 c7 45 00 4f 4b    	movw   $0x4b4f,0x0(%rbp)
  403538:	c6 45 02 00          	movb   $0x0,0x2(%rbp)
  40353c:	b8 00 00 00 00       	mov    $0x0,%eax
  403541:	48 8b 4c 24 18       	mov    0x18(%rsp),%rcx
  403546:	64 48 33 0c 25 28 00 	xor    %fs:0x28,%rcx
  40354d:	00 00 
  40354f:	0f 85 10 01 00 00    	jne    403665 <init_driver+0x207>
  403555:	48 83 c4 20          	add    $0x20,%rsp
  403559:	5b                   	pop    %rbx
  40355a:	5d                   	pop    %rbp
  40355b:	41 5c                	pop    %r12
  40355d:	c3                   	retq   
  40355e:	48 b8 45 72 72 6f 72 	movabs $0x43203a726f727245,%rax
  403565:	3a 20 43 
  403568:	48 ba 6c 69 65 6e 74 	movabs $0x6e7520746e65696c,%rdx
  40356f:	20 75 6e 
  403572:	48 89 45 00          	mov    %rax,0x0(%rbp)
  403576:	48 89 55 08          	mov    %rdx,0x8(%rbp)
  40357a:	48 b8 61 62 6c 65 20 	movabs $0x206f7420656c6261,%rax
  403581:	74 6f 20 
  403584:	48 ba 63 72 65 61 74 	movabs $0x7320657461657263,%rdx
  40358b:	65 20 73 
  40358e:	48 89 45 10          	mov    %rax,0x10(%rbp)
  403592:	48 89 55 18          	mov    %rdx,0x18(%rbp)
  403596:	c7 45 20 6f 63 6b 65 	movl   $0x656b636f,0x20(%rbp)
  40359d:	66 c7 45 24 74 00    	movw   $0x74,0x24(%rbp)
  4035a3:	b8 ff ff ff ff       	mov    $0xffffffff,%eax
  4035a8:	eb 97                	jmp    403541 <init_driver+0xe3>
  4035aa:	48 b8 45 72 72 6f 72 	movabs $0x44203a726f727245,%rax
  4035b1:	3a 20 44 
  4035b4:	48 ba 4e 53 20 69 73 	movabs $0x6e7520736920534e,%rdx
  4035bb:	20 75 6e 
  4035be:	48 89 45 00          	mov    %rax,0x0(%rbp)
  4035c2:	48 89 55 08          	mov    %rdx,0x8(%rbp)
  4035c6:	48 b8 61 62 6c 65 20 	movabs $0x206f7420656c6261,%rax
  4035cd:	74 6f 20 
  4035d0:	48 ba 72 65 73 6f 6c 	movabs $0x2065766c6f736572,%rdx
  4035d7:	76 65 20 
  4035da:	48 89 45 10          	mov    %rax,0x10(%rbp)
  4035de:	48 89 55 18          	mov    %rdx,0x18(%rbp)
  4035e2:	48 b8 73 65 72 76 65 	movabs $0x6120726576726573,%rax
  4035e9:	72 20 61 
  4035ec:	48 89 45 20          	mov    %rax,0x20(%rbp)
  4035f0:	c7 45 28 64 64 72 65 	movl   $0x65726464,0x28(%rbp)
  4035f7:	66 c7 45 2c 73 73    	movw   $0x7373,0x2c(%rbp)
  4035fd:	c6 45 2e 00          	movb   $0x0,0x2e(%rbp)
  403601:	89 df                	mov    %ebx,%edi
  403603:	e8 e8 dc ff ff       	callq  4012f0 <close@plt>
  403608:	b8 ff ff ff ff       	mov    $0xffffffff,%eax
  40360d:	e9 2f ff ff ff       	jmpq   403541 <init_driver+0xe3>
  403612:	48 b8 45 72 72 6f 72 	movabs $0x55203a726f727245,%rax
  403619:	3a 20 55 
  40361c:	48 ba 6e 61 62 6c 65 	movabs $0x6f7420656c62616e,%rdx
  403623:	20 74 6f 
  403626:	48 89 45 00          	mov    %rax,0x0(%rbp)
  40362a:	48 89 55 08          	mov    %rdx,0x8(%rbp)
  40362e:	48 b8 20 63 6f 6e 6e 	movabs $0x7463656e6e6f6320,%rax
  403635:	65 63 74 
  403638:	48 ba 20 74 6f 20 73 	movabs $0x76726573206f7420,%rdx
  40363f:	65 72 76 
  403642:	48 89 45 10          	mov    %rax,0x10(%rbp)
  403646:	48 89 55 18          	mov    %rdx,0x18(%rbp)
  40364a:	66 c7 45 20 65 72    	movw   $0x7265,0x20(%rbp)
  403650:	c6 45 22 00          	movb   $0x0,0x22(%rbp)
  403654:	89 df                	mov    %ebx,%edi
  403656:	e8 95 dc ff ff       	callq  4012f0 <close@plt>
  40365b:	b8 ff ff ff ff       	mov    $0xffffffff,%eax
  403660:	e9 dc fe ff ff       	jmpq   403541 <init_driver+0xe3>
  403665:	e8 46 dc ff ff       	callq  4012b0 <__stack_chk_fail@plt>

000000000040366a <driver_post>:
  40366a:	53                   	push   %rbx
  40366b:	4c 89 cb             	mov    %r9,%rbx
  40366e:	45 85 c0             	test   %r8d,%r8d
  403671:	75 18                	jne    40368b <driver_post+0x21>
  403673:	48 85 ff             	test   %rdi,%rdi
  403676:	74 05                	je     40367d <driver_post+0x13>
  403678:	80 3f 00             	cmpb   $0x0,(%rdi)
  40367b:	75 37                	jne    4036b4 <driver_post+0x4a>
  40367d:	66 c7 03 4f 4b       	movw   $0x4b4f,(%rbx)
  403682:	c6 43 02 00          	movb   $0x0,0x2(%rbx)
  403686:	44 89 c0             	mov    %r8d,%eax
  403689:	5b                   	pop    %rbx
  40368a:	c3                   	retq   
  40368b:	48 89 ca             	mov    %rcx,%rdx
  40368e:	48 8d 35 14 11 00 00 	lea    0x1114(%rip),%rsi        # 4047a9 <trans_char+0xc9>
  403695:	bf 01 00 00 00       	mov    $0x1,%edi
  40369a:	b8 00 00 00 00       	mov    $0x0,%eax
  40369f:	e8 fc dc ff ff       	callq  4013a0 <__printf_chk@plt>
  4036a4:	66 c7 03 4f 4b       	movw   $0x4b4f,(%rbx)
  4036a9:	c6 43 02 00          	movb   $0x0,0x2(%rbx)
  4036ad:	b8 00 00 00 00       	mov    $0x0,%eax
  4036b2:	eb d5                	jmp    403689 <driver_post+0x1f>
  4036b4:	48 83 ec 08          	sub    $0x8,%rsp
  4036b8:	41 51                	push   %r9
  4036ba:	49 89 c9             	mov    %rcx,%r9
  4036bd:	49 89 d0             	mov    %rdx,%r8
  4036c0:	48 89 f9             	mov    %rdi,%rcx
  4036c3:	48 89 f2             	mov    %rsi,%rdx
  4036c6:	be 96 1f 00 00       	mov    $0x1f96,%esi
  4036cb:	48 8d 3d 12 0c 00 00 	lea    0xc12(%rip),%rdi        # 4042e4 <_IO_stdin_used+0x2e4>
  4036d2:	e8 ce f5 ff ff       	callq  402ca5 <submitr>
  4036d7:	48 83 c4 10          	add    $0x10,%rsp
  4036db:	eb ac                	jmp    403689 <driver_post+0x1f>

00000000004036dd <check>:
  4036dd:	f3 0f 1e fa          	endbr64 
  4036e1:	89 f8                	mov    %edi,%eax
  4036e3:	c1 e8 1c             	shr    $0x1c,%eax
  4036e6:	74 1d                	je     403705 <check+0x28>
  4036e8:	b9 00 00 00 00       	mov    $0x0,%ecx
  4036ed:	83 f9 1f             	cmp    $0x1f,%ecx
  4036f0:	7f 0d                	jg     4036ff <check+0x22>
  4036f2:	89 f8                	mov    %edi,%eax
  4036f4:	d3 e8                	shr    %cl,%eax
  4036f6:	3c 0a                	cmp    $0xa,%al
  4036f8:	74 11                	je     40370b <check+0x2e>
  4036fa:	83 c1 08             	add    $0x8,%ecx
  4036fd:	eb ee                	jmp    4036ed <check+0x10>
  4036ff:	b8 01 00 00 00       	mov    $0x1,%eax
  403704:	c3                   	retq   
  403705:	b8 00 00 00 00       	mov    $0x0,%eax
  40370a:	c3                   	retq   
  40370b:	b8 00 00 00 00       	mov    $0x0,%eax
  403710:	c3                   	retq   

0000000000403711 <gencookie>:
  403711:	f3 0f 1e fa          	endbr64 
  403715:	53                   	push   %rbx
  403716:	83 c7 01             	add    $0x1,%edi
  403719:	e8 42 db ff ff       	callq  401260 <srandom@plt>
  40371e:	e8 4d dc ff ff       	callq  401370 <random@plt>
  403723:	48 89 c7             	mov    %rax,%rdi
  403726:	89 c3                	mov    %eax,%ebx
  403728:	e8 b0 ff ff ff       	callq  4036dd <check>
  40372d:	85 c0                	test   %eax,%eax
  40372f:	74 ed                	je     40371e <gencookie+0xd>
  403731:	89 d8                	mov    %ebx,%eax
  403733:	5b                   	pop    %rbx
  403734:	c3                   	retq   
  403735:	66 2e 0f 1f 84 00 00 	nopw   %cs:0x0(%rax,%rax,1)
  40373c:	00 00 00 
  40373f:	90                   	nop

0000000000403740 <__libc_csu_init>:
  403740:	f3 0f 1e fa          	endbr64 
  403744:	41 57                	push   %r15
  403746:	4c 8d 3d c3 36 00 00 	lea    0x36c3(%rip),%r15        # 406e10 <__frame_dummy_init_array_entry>
  40374d:	41 56                	push   %r14
  40374f:	49 89 d6             	mov    %rdx,%r14
  403752:	41 55                	push   %r13
  403754:	49 89 f5             	mov    %rsi,%r13
  403757:	41 54                	push   %r12
  403759:	41 89 fc             	mov    %edi,%r12d
  40375c:	55                   	push   %rbp
  40375d:	48 8d 2d b4 36 00 00 	lea    0x36b4(%rip),%rbp        # 406e18 <__do_global_dtors_aux_fini_array_entry>
  403764:	53                   	push   %rbx
  403765:	4c 29 fd             	sub    %r15,%rbp
  403768:	48 83 ec 08          	sub    $0x8,%rsp
  40376c:	e8 8f d8 ff ff       	callq  401000 <_init>
  403771:	48 c1 fd 03          	sar    $0x3,%rbp
  403775:	74 1f                	je     403796 <__libc_csu_init+0x56>
  403777:	31 db                	xor    %ebx,%ebx
  403779:	0f 1f 80 00 00 00 00 	nopl   0x0(%rax)
  403780:	4c 89 f2             	mov    %r14,%rdx
  403783:	4c 89 ee             	mov    %r13,%rsi
  403786:	44 89 e7             	mov    %r12d,%edi
  403789:	41 ff 14 df          	callq  *(%r15,%rbx,8)
  40378d:	48 83 c3 01          	add    $0x1,%rbx
  403791:	48 39 dd             	cmp    %rbx,%rbp
  403794:	75 ea                	jne    403780 <__libc_csu_init+0x40>
  403796:	48 83 c4 08          	add    $0x8,%rsp
  40379a:	5b                   	pop    %rbx
  40379b:	5d                   	pop    %rbp
  40379c:	41 5c                	pop    %r12
  40379e:	41 5d                	pop    %r13
  4037a0:	41 5e                	pop    %r14
  4037a2:	41 5f                	pop    %r15
  4037a4:	c3                   	retq   
  4037a5:	66 66 2e 0f 1f 84 00 	data16 nopw %cs:0x0(%rax,%rax,1)
  4037ac:	00 00 00 00 

00000000004037b0 <__libc_csu_fini>:
  4037b0:	f3 0f 1e fa          	endbr64 
  4037b4:	c3                   	retq   

Disassembly of section .fini:

00000000004037b8 <_fini>:
  4037b8:	f3 0f 1e fa          	endbr64 
  4037bc:	48 83 ec 08          	sub    $0x8,%rsp
  4037c0:	48 83 c4 08          	add    $0x8,%rsp
  4037c4:	c3                   	retq   
